EXPORTS
??_H@YAXPEAX_K1P6APEAX0@Z@Z
?__empty_global_delete@@YAXPEAX@Z
?__empty_global_delete@@YAXPEAX_K@Z
?open_table@System_table_access@@QEAA_NPEAVTHD@@Ust_mysql_lex_string@@1IW4thr_lock_type@@PEAPEAUTABLE@@PEAVOpen_tables_backup@@@Z
?close_table@System_table_access@@QEAA_NPEAVTHD@@PEAUTABLE@@PEAVOpen_tables_backup@@_N3@Z
?create_thd@System_table_access@@QEAAPEAVTHD@@XZ
?drop_thd@System_table_access@@QEAAXPEAVTHD@@@Z
?use_all_columns@TABLE@@QEAAXXZ
??0TABLE_LIST@@QEAA@XZ
?init_one_table@TABLE_LIST@@QEAAXPEBD_K010W4thr_lock_type@@W4enum_mdl_type@@@Z
??1Query_tables_list@@QEAA@XZ
??1DML_prelocking_strategy@@UEAA@XZ
??0Binary_log_event@binary_log@@IEAA@W4Log_event_type@1@@Z
??1Incident_event@binary_log@@UEAA@XZ
?instance@injector@@SAPEAV1@XZ
?free_instance@injector@@SAXXZ
??1save_sets@table@transaction@injector@@QEAA@XZ
??1transaction@injector@@QEAA@XZ
?use_table@transaction@injector@@QEAAHIVtable@12@@Z
?write_row@transaction@injector@@QEAAHIVtable@12@PEBUst_bitmap@@_KPEAEPEBE@Z
?write_row@transaction@injector@@QEAAHIVtable@12@PEBUst_bitmap@@_KPEAE@Z
?delete_row@transaction@injector@@QEAAHIVtable@12@PEBUst_bitmap@@_KPEAEPEBE@Z
?delete_row@transaction@injector@@QEAAHIVtable@12@PEBUst_bitmap@@_KPEAE@Z
?update_row@transaction@injector@@QEAAHIVtable@12@PEBUst_bitmap@@1_KPEAE3PEBE@Z
?update_row@transaction@injector@@QEAAHIVtable@12@PEBUst_bitmap@@_KPEAE3@Z
?commit@transaction@injector@@QEAAHXZ
?rollback@transaction@injector@@QEAAHXZ
?start_pos@transaction@injector@@QEBA?AVbinlog_pos@12@XZ
?next_pos@transaction@injector@@QEBA?AVbinlog_pos@12@XZ
??0transaction@injector@@AEAA@PEAVMYSQL_BIN_LOG@@PEAVTHD@@@Z
?swap@transaction@injector@@AEAAXAEAV12@@Z
?check_state@transaction@injector@@AEAAHW4enum_state@12@@Z
?new_trans@injector@@QEAAXPEAVTHD@@PEAVtransaction@1@@Z
?record_incident@injector@@QEAAHPEAVTHD@@W4enum_incident@Incident_event@binary_log@@Ust_mysql_lex_string@@@Z
??0st_log_info@@QEAA@XZ
?get_db@Log_event@@UEAAPEBDXZ
?write@Log_event@@UEAA_NPEAUst_io_cache@@@Z
?is_sbr_logging_format@Log_event@@UEBA_NXZ
?is_rbr_logging_format@Log_event@@UEBA_NXZ
?set_mts_isolate_group@Log_event@@EEAAXXZ
?get_mts_dbs@Log_event@@UEAAEPEAUst_mts_db_names@@@Z
?mts_number_dbs@Log_event@@UEAAEXZ
?starts_group@Log_event@@UEAA_NXZ
??0Incident_log_event@@QEAA@PEAVTHD@@W4enum_incident@Incident_event@binary_log@@Ust_mysql_lex_string@@@Z
?get_data_size@Incident_log_event@@UEAA_KXZ
?ends_group@Incident_log_event@@UEAA_NXZ
?state_name@?1??check_state@transaction@injector@@AEAAHW4enum_state@23@@Z@4PAPEBDA DATA
key_memory_table_def_memory DATA
??1String@@QEAA@XZ
?c_ptr_safe@String@@QEAAPEADXZ
?mem_free@String@@QEAAXXZ
?my_decimal_precision_to_length_no_truncation@@YAIIE_N@Z
?push_back@base_list@@QEAA_NPEAX@Z
?make_entry@Hash_slave_rows@@QEAAPEAUhash_row_entry_st@@XZ
?make_entry@Hash_slave_rows@@QEAAPEAUhash_row_entry_st@@PEBE0@Z
?put@Hash_slave_rows@@QEAA_NPEAUTABLE@@PEAUst_bitmap@@PEAUhash_row_entry_st@@@Z
?get@Hash_slave_rows@@QEAAPEAUhash_row_entry_st@@PEAUTABLE@@PEAUst_bitmap@@@Z
?next@Hash_slave_rows@@QEAA_NPEAPEAUhash_row_entry_st@@@Z
?del@Hash_slave_rows@@QEAA_NPEAUhash_row_entry_st@@@Z
?init@Hash_slave_rows@@QEAA_NXZ
?deinit@Hash_slave_rows@@QEAA_NXZ
?is_empty@Hash_slave_rows@@QEAA_NXZ
?size@Hash_slave_rows@@QEAAHXZ
?make_hash_key@Hash_slave_rows@@AEAAIPEAUTABLE@@PEAUst_bitmap@@@Z
??0table_def@@QEAA@PEAEK0H0G@Z
??1table_def@@QEAA@XZ
?type@table_def@@QEBA?AW4enum_field_types@@K@Z
?calc_field_size@table_def@@QEBAIIPEAE@Z
?compatible_with@table_def@@QEBA_NPEAVTHD@@PEAVRelay_log_info@@PEAUTABLE@@PEAPEAU4@@Z
?create_conversion_table@table_def@@QEBAPEAUTABLE@@PEAVTHD@@PEAVRelay_log_info@@PEAU2@@Z
??0?$Prealloced_array@PEAVLog_event@@$0CA@$00@@QEAA@AEBV0@@Z
??0?$Prealloced_array@PEAVLog_event@@$0CA@$00@@QEAA@IPEBQEAVLog_event@@0@Z
??4?$Prealloced_array@PEAVLog_event@@$0CA@$00@@QEAAAEAV0@AEBV0@@Z
??1?$Prealloced_array@PEAVLog_event@@$0CA@$00@@QEAA@XZ
?reserve@?$Prealloced_array@PEAVLog_event@@$0CA@$00@@QEAA_N_K@Z
?push_back@?$Prealloced_array@PEAVLog_event@@$0CA@$00@@QEAA_NAEBQEAVLog_event@@@Z
?swap@?$Prealloced_array@PEAVLog_event@@$0CA@$00@@QEAAXAEAV1@@Z
?shrink_to_fit@?$Prealloced_array@PEAVLog_event@@$0CA@$00@@QEAAXXZ
?clear@?$Prealloced_array@PEAVLog_event@@$0CA@$00@@QEAAXXZ
??0Deferred_log_events@@QEAA@PEAVRelay_log_info@@@Z
??1Deferred_log_events@@QEAA@XZ
?add@Deferred_log_events@@QEAAHPEAVLog_event@@@Z
?is_empty@Deferred_log_events@@QEAA_NXZ
?execute@Deferred_log_events@@QEAA_NPEAVRelay_log_info@@@Z
?rewind@Deferred_log_events@@QEAAXXZ
?is_null@Field@@QEBA_N_J@Z
?compare_lengths@@YAHPEAVField@@W4enum_field_types@@G@Z
?is_conversion_ok@@YA_NHPEAVRelay_log_info@@@Z
??$delete_container_pointers@V?$Prealloced_array@PEAVLog_event@@$0CA@$00@@@@YAXAEAV?$Prealloced_array@PEAVLog_event@@$0CA@$00@@@Z
??$swap@V?$Prealloced_array@PEAVLog_event@@$0CA@$00@@$0A@@std@@YAXAEAV?$Prealloced_array@PEAVLog_event@@$0CA@$00@@0@Z
??0exception@std@@QEAA@AEBV01@@Z
?what@exception@std@@UEBAPEBDXZ
??0bad_alloc@std@@QEAA@AEBV01@@Z
??0bad_array_new_length@std@@QEAA@XZ
??1bad_array_new_length@std@@UEAA@XZ
??0bad_array_new_length@std@@QEAA@AEBV01@@Z
?_Throw_bad_array_new_length@std@@YAXXZ
?_Adjust_manually_vector_aligned@std@@YAXAEAPEAXAEA_K@Z
??4_Iterator_base12@std@@QEAAAEAU01@AEBU01@@Z
?_Adopt@_Iterator_base12@std@@QEAAXPEBU_Container_base12@2@@Z
?_Orphan_me@_Iterator_base12@std@@QEAAXXZ
?_Throw_tree_length_error@std@@YAXXZ
??0Logical_clock@@QEAA@XZ
?step@Logical_clock@@QEAA_JXZ
?set_if_greater@Logical_clock@@QEAA_J_J@Z
?get_timestamp@Logical_clock@@QEAA_JXZ
?get_dependency@Commit_order_trx_dependency_tracker@@QEAAXPEAVTHD@@AEA_J1@Z
?update_max_committed@Commit_order_trx_dependency_tracker@@QEAAX_J@Z
?step@Commit_order_trx_dependency_tracker@@QEAA_JXZ
?rotate@Commit_order_trx_dependency_tracker@@QEAAXXZ
?get_dependency@Writeset_trx_dependency_tracker@@QEAAXPEAVTHD@@AEA_J1@Z
?rotate@Writeset_trx_dependency_tracker@@QEAAX_J@Z
?clear@?$_Tree@V?$_Tmap_traits@_K_JU?$less@_K@std@@V?$allocator@U?$pair@$$CB_K_J@std@@@2@$0A@@std@@@std@@QEAAXXZ
?_Check_grow_by_1@?$_Tree@V?$_Tmap_traits@_K_JU?$less@_K@std@@V?$allocator@U?$pair@$$CB_K_J@std@@@2@$0A@@std@@@std@@IEAAXXZ
?_Lrotate@?$_Tree_val@U?$_Tree_simple_types@U?$pair@$$CB_K_J@std@@@std@@@std@@QEAAXPEAU?$_Tree_node@U?$pair@$$CB_K_J@std@@PEAX@2@@Z
?_Rrotate@?$_Tree_val@U?$_Tree_simple_types@U?$pair@$$CB_K_J@std@@@std@@@std@@QEAAXPEAU?$_Tree_node@U?$pair@$$CB_K_J@std@@PEAX@2@@Z
?_Insert_node@?$_Tree_val@U?$_Tree_simple_types@U?$pair@$$CB_K_J@std@@@std@@@std@@QEAAPEAU?$_Tree_node@U?$pair@$$CB_K_J@std@@PEAX@2@U?$_Tree_id@PEAU?$_Tree_node@U?$pair@$$CB_K_J@std@@PEAX@std@@@2@QEAU32@@Z
?_Orphan_ptr@?$_Tree_val@U?$_Tree_simple_types@U?$pair@$$CB_K_J@std@@@std@@@std@@QEAAXQEAU?$_Tree_node@U?$pair@$$CB_K_J@std@@PEAX@2@@Z
?get_dependency@Writeset_session_trx_dependency_tracker@@QEAAXPEAVTHD@@AEA_J1@Z
?get_dependency@Transaction_dependency_tracker@@QEAAXPEAVTHD@@AEA_J1@Z
?tracking_mode_changed@Transaction_dependency_tracker@@QEAAXXZ
?update_max_committed@Transaction_dependency_tracker@@QEAAXPEAVTHD@@@Z
?get_max_committed_timestamp@Transaction_dependency_tracker@@QEAA_JXZ
?step@Transaction_dependency_tracker@@QEAA_JXZ
?rotate@Transaction_dependency_tracker@@QEAAXXZ
??E?$_Tree_unchecked_const_iterator@V?$_Tree_val@U?$_Tree_simple_types@_K@std@@@std@@U_Iterator_base12@2@@std@@QEAAAEAV01@XZ
??D?$_Tree_const_iterator@V?$_Tree_val@U?$_Tree_simple_types@_K@std@@@std@@@std@@QEBAAEB_KXZ
??E?$_Tree_const_iterator@V?$_Tree_val@U?$_Tree_simple_types@_K@std@@@std@@@std@@QEAAAEAV01@XZ
??8?$_Tree_const_iterator@V?$_Tree_val@U?$_Tree_simple_types@_K@std@@@std@@@std@@QEBA_NAEBV01@@Z
??1?$_Tree_const_iterator@V?$_Tree_val@U?$_Tree_simple_types@_K@std@@@std@@@std@@QEAA@XZ
??0?$_Tree_const_iterator@V?$_Tree_val@U?$_Tree_simple_types@_K@std@@@std@@@std@@QEAA@PEAU?$_Tree_node@_KPEAX@1@PEBV?$_Tree_val@U?$_Tree_simple_types@_K@std@@@1@@Z
??0?$_Tree_unchecked_const_iterator@V?$_Tree_val@U?$_Tree_simple_types@U?$pair@$$CB_K_J@std@@@std@@@std@@U_Iterator_base12@2@@std@@QEAA@$$QEAV01@@Z
??D?$_Tree_const_iterator@V?$_Tree_val@U?$_Tree_simple_types@U?$pair@$$CB_K_J@std@@@std@@@std@@@std@@QEBAAEBU?$pair@$$CB_K_J@1@XZ
??8?$_Tree_const_iterator@V?$_Tree_val@U?$_Tree_simple_types@U?$pair@$$CB_K_J@std@@@std@@@std@@@std@@QEBA_NAEBV01@@Z
??1?$_Tree_iterator@V?$_Tree_val@U?$_Tree_simple_types@U?$pair@$$CB_K_J@std@@@std@@@std@@@std@@QEAA@XZ
??0?$_Tree_iterator@V?$_Tree_val@U?$_Tree_simple_types@U?$pair@$$CB_K_J@std@@@std@@@std@@@std@@QEAA@PEAU?$_Tree_node@U?$pair@$$CB_K_J@std@@PEAX@1@PEBV?$_Tree_val@U?$_Tree_simple_types@U?$pair@$$CB_K_J@std@@@std@@@1@@Z
??$_Find@_K@?$_Tree@V?$_Tmap_traits@_K_JU?$less@_K@std@@V?$allocator@U?$pair@$$CB_K_J@std@@@2@$0A@@std@@@std@@AEBAPEAU?$_Tree_node@U?$pair@$$CB_K_J@std@@PEAX@1@AEB_K@Z
??$_Erase_tree@V?$allocator@U?$_Tree_node@U?$pair@$$CB_K_J@std@@PEAX@std@@@std@@@?$_Tree_val@U?$_Tree_simple_types@U?$pair@$$CB_K_J@std@@@std@@@std@@QEAAXAEAV?$allocator@U?$_Tree_node@U?$pair@$$CB_K_J@std@@PEAX@std@@@1@PEAU?$_Tree_node@U?$pair@$$CB_K_J@std@@PEAX@1@@Z
??$_Allocate@$0BA@U_Default_allocate_traits@std@@$0A@@std@@YAPEAX_K@Z
??$_Deallocate@$0BA@$0A@@std@@YAXPEAX_K@Z
??$emplace@U?$pair@_K_J@std@@@?$_Tree@V?$_Tmap_traits@_K_JU?$less@_K@std@@V?$allocator@U?$pair@$$CB_K_J@std@@@2@$0A@@std@@@std@@QEAA?AU?$pair@V?$_Tree_iterator@V?$_Tree_val@U?$_Tree_simple_types@U?$pair@$$CB_K_J@std@@@std@@@std@@@std@@_N@1@$$QEAU?$pair@_K_J@1@@Z
??$_Find_lower_bound@_K@?$_Tree@V?$_Tmap_traits@_K_JU?$less@_K@std@@V?$allocator@U?$pair@$$CB_K_J@std@@@2@$0A@@std@@@std@@IEBA?AU?$_Tree_find_result@PEAU?$_Tree_node@U?$pair@$$CB_K_J@std@@PEAX@std@@@1@AEB_K@Z
??$_Freenode0@V?$allocator@U?$_Tree_node@U?$pair@$$CB_K_J@std@@PEAX@std@@@std@@@?$_Tree_node@U?$pair@$$CB_K_J@std@@PEAX@std@@SAXAEAV?$allocator@U?$_Tree_node@U?$pair@$$CB_K_J@std@@PEAX@std@@@1@PEAU01@@Z
??$_Allocate_manually_vector_aligned@U_Default_allocate_traits@std@@@std@@YAPEAX_K@Z
??$_Emplace@U?$pair@_K_J@std@@@?$_Tree@V?$_Tmap_traits@_K_JU?$less@_K@std@@V?$allocator@U?$pair@$$CB_K_J@std@@@2@$0A@@std@@@std@@IEAA?AU?$pair@PEAU?$_Tree_node@U?$pair@$$CB_K_J@std@@PEAX@std@@_N@1@$$QEAU?$pair@_K_J@1@@Z
??$_Debug_lt_pred@AEBU?$less@_K@std@@AEB_KAEB_K$0A@@std@@YA_NAEBU?$less@_K@0@AEB_K1@Z
??$_Destroy_in_place@PEAU?$_Tree_node@U?$pair@$$CB_K_J@std@@PEAX@std@@@std@@YAXAEAPEAU?$_Tree_node@U?$pair@$$CB_K_J@std@@PEAX@0@@Z
?_Allocate@?$_Alloc_construct_ptr@V?$allocator@U?$_Tree_node@U?$pair@$$CB_K_J@std@@PEAX@std@@@std@@@std@@QEAAXXZ
??1?$_Alloc_construct_ptr@V?$allocator@U?$_Tree_node@U?$pair@$$CB_K_J@std@@PEAX@std@@@std@@@std@@QEAA@XZ
??1?$_Tree_temp_node@V?$allocator@U?$_Tree_node@U?$pair@$$CB_K_J@std@@PEAX@std@@@std@@@std@@QEAA@XZ
??$?0U?$pair@_K_J@std@@@?$_Tree_temp_node@V?$allocator@U?$_Tree_node@U?$pair@$$CB_K_J@std@@PEAX@std@@@std@@@std@@QEAA@AEAV?$allocator@U?$_Tree_node@U?$pair@$$CB_K_J@std@@PEAX@std@@@1@PEAU?$_Tree_node@U?$pair@$$CB_K_J@std@@PEAX@1@$$QEAU?$pair@_K_J@1@@Z
??$_Construct_in_place@PEAU?$_Tree_node@U?$pair@$$CB_K_J@std@@PEAX@std@@AEAPEAU12@@std@@YAXAEAPEAU?$_Tree_node@U?$pair@$$CB_K_J@std@@PEAX@0@0@Z
?pack_row_old@@YA_KPEAUTABLE@@PEBUst_bitmap@@PEAEPEBE@Z
?unpack_row_old@@YAHPEAVRelay_log_info@@PEAUTABLE@@IPEAEPEBEPEBUst_bitmap@@PEAPEBEPEAKQEAU3@W4Log_event_type@binary_log@@@Z
?last_null_byte@Field@@QEBA_KXZ
?pack@Field@@QEAAPEAEPEAEPEBE@Z
?unpack@Field@@QEAAPEBEPEAEPEBE@Z
?pack_row@@YA_KPEAUTABLE@@PEBUst_bitmap@@PEAEPEBE@Z
?unpack_row@@YAHPEBVRelay_log_info@@PEAUTABLE@@IQEBEPEBUst_bitmap@@QEAPEBEQEAK2@Z
?prepare_record@@YAHQEAUTABLE@@PEBUst_bitmap@@_N@Z
?takeover@String@@QEAAXAEAV1@@Z
?keep_old_value@Field_blob@@QEAAXXZ
??1Copy_field@@QEAA@XZ
?maybe_null@table_def@@QEBADI@Z
?get_table_data@Relay_log_info@@QEBA_NPEAUTABLE@@PEAPEAVtable_def@@PEAPEAU2@@Z
??$down_cast@PEAVField_blob@@PEAVField@@@@YAPEAVField_blob@@PEAVField@@@Z
?c_ptr@String@@QEAAPEADXZ
?chop@String@@QEAAXXZ
?append@String@@QEAA_ND@Z
?unlink@?$ilink@Vi_string@@@@QEAAXXZ
?unlink@?$ilink@Vi_string_pair@@@@QEAAXXZ
??0Rpl_filter@@QEAA@XZ
??1Rpl_filter@@QEAA@XZ
?tables_ok@Rpl_filter@@QEAA_NPEBDPEAUTABLE_LIST@@@Z
?db_ok@Rpl_filter@@QEAA_NPEBD@Z
?db_ok_with_wild_table@Rpl_filter@@QEAA_NPEBD@Z
?is_on@Rpl_filter@@QEAA_NXZ
?is_rewrite_empty@Rpl_filter@@QEAA_NXZ
?build_do_table_hash@Rpl_filter@@QEAAHXZ
?build_ignore_table_hash@Rpl_filter@@QEAAHXZ
?add_string_list@Rpl_filter@@QEAAHPEAV?$I_List@Vi_string@@@@PEBD@Z
?add_string_pair_list@Rpl_filter@@QEAAHPEAV?$I_List@Vi_string_pair@@@@PEAD1@Z
?add_do_table_array@Rpl_filter@@QEAAHPEBD@Z
?add_ignore_table_array@Rpl_filter@@QEAAHPEBD@Z
?add_wild_do_table@Rpl_filter@@QEAAHPEBD@Z
?add_wild_ignore_table@Rpl_filter@@QEAAHPEBD@Z
?set_do_db@Rpl_filter@@QEAAHPEAV?$List@VItem@@@@@Z
?set_ignore_db@Rpl_filter@@QEAAHPEAV?$List@VItem@@@@@Z
?set_do_table@Rpl_filter@@QEAAHPEAV?$List@VItem@@@@@Z
?set_ignore_table@Rpl_filter@@QEAAHPEAV?$List@VItem@@@@@Z
?set_wild_do_table@Rpl_filter@@QEAAHPEAV?$List@VItem@@@@@Z
?set_wild_ignore_table@Rpl_filter@@QEAAHPEAV?$List@VItem@@@@@Z
?set_db_rewrite@Rpl_filter@@QEAAHPEAV?$List@VItem@@@@@Z
?parse_filter_list@Rpl_filter@@QEAAHPEAV?$List@VItem@@@@P81@EAAHPEBD@Z@Z
?add_do_db@Rpl_filter@@QEAAHPEBD@Z
?add_ignore_db@Rpl_filter@@QEAAHPEBD@Z
?add_db_rewrite@Rpl_filter@@QEAAHPEBD0@Z
?get_do_table@Rpl_filter@@QEAAXPEAVString@@@Z
?get_ignore_table@Rpl_filter@@QEAAXPEAVString@@@Z
?get_wild_do_table@Rpl_filter@@QEAAXPEAVString@@@Z
?get_wild_ignore_table@Rpl_filter@@QEAAXPEAVString@@@Z
?get_rewrite_db@Rpl_filter@@QEAAPEBDPEBDPEA_K@Z
?get_rewrite_db@Rpl_filter@@QEAAXPEAVString@@@Z
?get_do_db@Rpl_filter@@QEAAPEAV?$I_List@Vi_string@@@@XZ
?get_ignore_db@Rpl_filter@@QEAAPEAV?$I_List@Vi_string@@@@XZ
?free_string_list@Rpl_filter@@QEAAXPEAV?$I_List@Vi_string@@@@@Z
?free_string_pair_list@Rpl_filter@@QEAAXPEAV?$I_List@Vi_string_pair@@@@@Z
?init_table_rule_hash@Rpl_filter@@AEAAXPEAUst_hash@@PEA_N@Z
?init_table_rule_array@Rpl_filter@@AEAAXPEAV?$Prealloced_array@PEAUst_table_rule_ent@@$0BA@$00@@PEA_N@Z
?add_table_rule_to_array@Rpl_filter@@AEAAHPEAV?$Prealloced_array@PEAUst_table_rule_ent@@$0BA@$00@@PEBD@Z
?add_table_rule_to_hash@Rpl_filter@@AEAAHPEAUst_hash@@PEBDI@Z
?free_string_array@Rpl_filter@@AEAAXPEAV?$Prealloced_array@PEAUst_table_rule_ent@@$0BA@$00@@@Z
?table_rule_ent_hash_to_str@Rpl_filter@@AEAAXPEAVString@@PEAUst_hash@@_N@Z
?table_rule_ent_dynamic_array_to_str@Rpl_filter@@AEAAXPEAVString@@PEAV?$Prealloced_array@PEAUst_table_rule_ent@@$0BA@$00@@_N@Z
?find_wild@Rpl_filter@@AEAAPEAUst_table_rule_ent@@PEAV?$Prealloced_array@PEAUst_table_rule_ent@@$0BA@$00@@PEBD_K@Z
?build_table_hash_from_array@Rpl_filter@@AEAAHPEAV?$Prealloced_array@PEAUst_table_rule_ent@@$0BA@$00@@PEAUst_hash@@_NPEA_N@Z
??0?$Prealloced_array@PEAUst_table_rule_ent@@$0BA@$00@@QEAA@AEBV0@@Z
??0?$Prealloced_array@PEAUst_table_rule_ent@@$0BA@$00@@QEAA@IPEBQEAUst_table_rule_ent@@0@Z
??4?$Prealloced_array@PEAUst_table_rule_ent@@$0BA@$00@@QEAAAEAV0@AEBV0@@Z
??1?$Prealloced_array@PEAUst_table_rule_ent@@$0BA@$00@@QEAA@XZ
?reserve@?$Prealloced_array@PEAUst_table_rule_ent@@$0BA@$00@@QEAA_N_K@Z
?push_back@?$Prealloced_array@PEAUst_table_rule_ent@@$0BA@$00@@QEAA_NAEBQEAUst_table_rule_ent@@@Z
?swap@?$Prealloced_array@PEAUst_table_rule_ent@@$0BA@$00@@QEAAXAEAV1@@Z
?shrink_to_fit@?$Prealloced_array@PEAUst_table_rule_ent@@$0BA@$00@@QEAAXXZ
?clear@?$Prealloced_array@PEAUst_table_rule_ent@@$0BA@$00@@QEAAXXZ
??1?$base_ilist@Vi_string@@@@QEAA@XZ
??1?$base_ilist@Vi_string_pair@@@@QEAA@XZ
?execute@Sql_cmd_change_repl_filter@@UEAA_NPEAVTHD@@@Z
?set_filter_value@Sql_cmd_change_repl_filter@@QEAAXPEAV?$List@VItem@@@@W4options_mysqld@@@Z
?change_rpl_filter@Sql_cmd_change_repl_filter@@QEAA_NPEAVTHD@@@Z
?wrlock@Checkable_rwlock@@QEAAXXZ
?unlock@Checkable_rwlock@@QEAAXXZ
?assert_some_lock@Checkable_rwlock@@QEBAXXZ
?assert_no_lock@Checkable_rwlock@@QEBAXXZ
?end@?$_Tree@V?$_Tmap_traits@V?$basic_string@DU?$char_traits@D@std@@V?$allocator@D@2@@std@@PEAVMaster_info@@U?$less@V?$basic_string@DU?$char_traits@D@std@@V?$allocator@D@2@@std@@@2@V?$allocator@U?$pair@$$CBV?$basic_string@DU?$char_traits@D@std@@V?$allocator@D@2@@std@@PEAVMaster_info@@@std@@@2@$0A@@std@@@std@@QEAA?AV?$_Tree_iterator@V?$_Tree_val@U?$_Tree_simple_types@U?$pair@$$CBV?$basic_string@DU?$char_traits@D@std@@V?$allocator@D@2@@std@@PEAVMaster_info@@@std@@@std@@@std@@@2@XZ
?begin@Multisource_info@@QEAA?AV?$_Tree_iterator@V?$_Tree_val@U?$_Tree_simple_types@U?$pair@$$CBV?$basic_string@DU?$char_traits@D@std@@V?$allocator@D@2@@std@@PEAVMaster_info@@@std@@@std@@@std@@@std@@W4enum_channel_type@@@Z
?end@Multisource_info@@QEAA?AV?$_Tree_iterator@V?$_Tree_val@U?$_Tree_simple_types@U?$pair@$$CBV?$basic_string@DU?$char_traits@D@std@@V?$allocator@D@2@@std@@PEAVMaster_info@@@std@@@std@@@std@@@std@@W4enum_channel_type@@@Z
??0?$_Tree_unchecked_const_iterator@V?$_Tree_val@U?$_Tree_simple_types@U?$pair@$$CBHV?$map@V?$basic_string@DU?$char_traits@D@std@@V?$allocator@D@2@@std@@PEAVMaster_info@@U?$less@V?$basic_string@DU?$char_traits@D@std@@V?$allocator@D@2@@std@@@2@V?$allocator@U?$pair@$$CBV?$basic_string@DU?$char_traits@D@std@@V?$allocator@D@2@@std@@PEAVMaster_info@@@std@@@2@@std@@@std@@@std@@@std@@U_Iterator_base12@2@@std@@QEAA@XZ
??0?$_Tree_unchecked_const_iterator@V?$_Tree_val@U?$_Tree_simple_types@U?$pair@$$CBHV?$map@V?$basic_string@DU?$char_traits@D@std@@V?$allocator@D@2@@std@@PEAVMaster_info@@U?$less@V?$basic_string@DU?$char_traits@D@std@@V?$allocator@D@2@@std@@@2@V?$allocator@U?$pair@$$CBV?$basic_string@DU?$char_traits@D@std@@V?$allocator@D@2@@std@@PEAVMaster_info@@@std@@@2@@std@@@std@@@std@@@std@@U_Iterator_base12@2@@std@@QEAA@PEAU?$_Tree_node@U?$pair@$$CBHV?$map@V?$basic_string@DU?$char_traits@D@std@@V?$allocator@D@2@@std@@PEAVMaster_info@@U?$less@V?$basic_string@DU?$char_traits@D@std@@V?$allocator@D@2@@std@@@2@V?$allocator@U?$pair@$$CBV?$basic_string@DU?$char_traits@D@std@@V?$allocator@D@2@@std@@PEAVMaster_info@@@std@@@2@@std@@@std@@PEAX@1@PEBV?$_Tree_val@U?$_Tree_simple_types@U?$pair@$$CBHV?$map@V?$basic_string@DU?$char_traits@D@std@@V?$allocator@D@2@@std@@PEAVMaster_info@@U?$less@V?$basic_string@DU?$char_traits@D@std@@V?$allocator@D@2@@std@@@2@V?$allocator@U?$pair@$$CBV?$basic_string@DU?$char_traits@D@std@@V?$allocator@D@2@@std@@PEAVMaster_info@@@std@@@2@@std@@@std@@@std@@@1@@Z
??D?$_Tree_const_iterator@V?$_Tree_val@U?$_Tree_simple_types@U?$pair@$$CBHV?$map@V?$basic_string@DU?$char_traits@D@std@@V?$allocator@D@2@@std@@PEAVMaster_info@@U?$less@V?$basic_string@DU?$char_traits@D@std@@V?$allocator@D@2@@std@@@2@V?$allocator@U?$pair@$$CBV?$basic_string@DU?$char_traits@D@std@@V?$allocator@D@2@@std@@PEAVMaster_info@@@std@@@2@@std@@@std@@@std@@@std@@@std@@QEBAAEBU?$pair@$$CBHV?$map@V?$basic_string@DU?$char_traits@D@std@@V?$allocator@D@2@@std@@PEAVMaster_info@@U?$less@V?$basic_string@DU?$char_traits@D@std@@V?$allocator@D@2@@std@@@2@V?$allocator@U?$pair@$$CBV?$basic_string@DU?$char_traits@D@std@@V?$allocator@D@2@@std@@PEAVMaster_info@@@std@@@2@@std@@@1@XZ
??8?$_Tree_const_iterator@V?$_Tree_val@U?$_Tree_simple_types@U?$pair@$$CBHV?$map@V?$basic_string@DU?$char_traits@D@std@@V?$allocator@D@2@@std@@PEAVMaster_info@@U?$less@V?$basic_string@DU?$char_traits@D@std@@V?$allocator@D@2@@std@@@2@V?$allocator@U?$pair@$$CBV?$basic_string@DU?$char_traits@D@std@@V?$allocator@D@2@@std@@PEAVMaster_info@@@std@@@2@@std@@@std@@@std@@@std@@@std@@QEBA_NAEBV01@@Z
??1?$_Tree_iterator@V?$_Tree_val@U?$_Tree_simple_types@U?$pair@$$CBHV?$map@V?$basic_string@DU?$char_traits@D@std@@V?$allocator@D@2@@std@@PEAVMaster_info@@U?$less@V?$basic_string@DU?$char_traits@D@std@@V?$allocator@D@2@@std@@@2@V?$allocator@U?$pair@$$CBV?$basic_string@DU?$char_traits@D@std@@V?$allocator@D@2@@std@@PEAVMaster_info@@@std@@@2@@std@@@std@@@std@@@std@@@std@@QEAA@XZ
??0?$_Tree_iterator@V?$_Tree_val@U?$_Tree_simple_types@U?$pair@$$CBHV?$map@V?$basic_string@DU?$char_traits@D@std@@V?$allocator@D@2@@std@@PEAVMaster_info@@U?$less@V?$basic_string@DU?$char_traits@D@std@@V?$allocator@D@2@@std@@@2@V?$allocator@U?$pair@$$CBV?$basic_string@DU?$char_traits@D@std@@V?$allocator@D@2@@std@@PEAVMaster_info@@@std@@@2@@std@@@std@@@std@@@std@@@std@@QEAA@PEAU?$_Tree_node@U?$pair@$$CBHV?$map@V?$basic_string@DU?$char_traits@D@std@@V?$allocator@D@2@@std@@PEAVMaster_info@@U?$less@V?$basic_string@DU?$char_traits@D@std@@V?$allocator@D@2@@std@@@2@V?$allocator@U?$pair@$$CBV?$basic_string@DU?$char_traits@D@std@@V?$allocator@D@2@@std@@PEAVMaster_info@@@std@@@2@@std@@@std@@PEAX@1@PEBV?$_Tree_val@U?$_Tree_simple_types@U?$pair@$$CBHV?$map@V?$basic_string@DU?$char_traits@D@std@@V?$allocator@D@2@@std@@PEAVMaster_info@@U?$less@V?$basic_string@DU?$char_traits@D@std@@V?$allocator@D@2@@std@@@2@V?$allocator@U?$pair@$$CBV?$basic_string@DU?$char_traits@D@std@@V?$allocator@D@2@@std@@PEAVMaster_info@@@std@@@2@@std@@@std@@@std@@@1@@Z
??0?$_Tree_unchecked_const_iterator@V?$_Tree_val@U?$_Tree_simple_types@U?$pair@$$CBV?$basic_string@DU?$char_traits@D@std@@V?$allocator@D@2@@std@@PEAVMaster_info@@@std@@@std@@@std@@U_Iterator_base12@2@@std@@QEAA@PEAU?$_Tree_node@U?$pair@$$CBV?$basic_string@DU?$char_traits@D@std@@V?$allocator@D@2@@std@@PEAVMaster_info@@@std@@PEAX@1@PEBV?$_Tree_val@U?$_Tree_simple_types@U?$pair@$$CBV?$basic_string@DU?$char_traits@D@std@@V?$allocator@D@2@@std@@PEAVMaster_info@@@std@@@std@@@1@@Z
??E?$_Tree_unchecked_const_iterator@V?$_Tree_val@U?$_Tree_simple_types@U?$pair@$$CBV?$basic_string@DU?$char_traits@D@std@@V?$allocator@D@2@@std@@PEAVMaster_info@@@std@@@std@@@std@@U_Iterator_base12@2@@std@@QEAAAEAV01@XZ
??D?$_Tree_const_iterator@V?$_Tree_val@U?$_Tree_simple_types@U?$pair@$$CBV?$basic_string@DU?$char_traits@D@std@@V?$allocator@D@2@@std@@PEAVMaster_info@@@std@@@std@@@std@@@std@@QEBAAEBU?$pair@$$CBV?$basic_string@DU?$char_traits@D@std@@V?$allocator@D@2@@std@@PEAVMaster_info@@@1@XZ
??E?$_Tree_const_iterator@V?$_Tree_val@U?$_Tree_simple_types@U?$pair@$$CBV?$basic_string@DU?$char_traits@D@std@@V?$allocator@D@2@@std@@PEAVMaster_info@@@std@@@std@@@std@@@std@@QEAAAEAV01@XZ
??8?$_Tree_const_iterator@V?$_Tree_val@U?$_Tree_simple_types@U?$pair@$$CBV?$basic_string@DU?$char_traits@D@std@@V?$allocator@D@2@@std@@PEAVMaster_info@@@std@@@std@@@std@@@std@@QEBA_NAEBV01@@Z
??1?$_Tree_iterator@V?$_Tree_val@U?$_Tree_simple_types@U?$pair@$$CBV?$basic_string@DU?$char_traits@D@std@@V?$allocator@D@2@@std@@PEAVMaster_info@@@std@@@std@@@std@@@std@@QEAA@XZ
??0?$_Tree_iterator@V?$_Tree_val@U?$_Tree_simple_types@U?$pair@$$CBV?$basic_string@DU?$char_traits@D@std@@V?$allocator@D@2@@std@@PEAVMaster_info@@@std@@@std@@@std@@@std@@QEAA@AEBV01@@Z
??0?$_Tree_iterator@V?$_Tree_val@U?$_Tree_simple_types@U?$pair@$$CBV?$basic_string@DU?$char_traits@D@std@@V?$allocator@D@2@@std@@PEAVMaster_info@@@std@@@std@@@std@@@std@@QEAA@$$QEAV01@@Z
?next@?$base_ilist_iterator@Vi_string@@@@QEAAPEAVi_string@@XZ
get_table_key
free_table_ent
??$my_free_container_pointers@V?$Prealloced_array@PEAUst_table_rule_ent@@$0BA@$00@@@@YAXAEAV?$Prealloced_array@PEAUst_table_rule_ent@@$0BA@$00@@@Z
?next@?$base_ilist_iterator@Vi_string_pair@@@@QEAAPEAVi_string_pair@@XZ
??$_Find@H@?$_Tree@V?$_Tmap_traits@HV?$map@V?$basic_string@DU?$char_traits@D@std@@V?$allocator@D@2@@std@@PEAVMaster_info@@U?$less@V?$basic_string@DU?$char_traits@D@std@@V?$allocator@D@2@@std@@@2@V?$allocator@U?$pair@$$CBV?$basic_string@DU?$char_traits@D@std@@V?$allocator@D@2@@std@@PEAVMaster_info@@@std@@@2@@std@@U?$less@H@2@V?$allocator@U?$pair@$$CBHV?$map@V?$basic_string@DU?$char_traits@D@std@@V?$allocator@D@2@@std@@PEAVMaster_info@@U?$less@V?$basic_string@DU?$char_traits@D@std@@V?$allocator@D@2@@std@@@2@V?$allocator@U?$pair@$$CBV?$basic_string@DU?$char_traits@D@std@@V?$allocator@D@2@@std@@PEAVMaster_info@@@std@@@2@@std@@@std@@@2@$0A@@std@@@std@@AEBAPEAU?$_Tree_node@U?$pair@$$CBHV?$map@V?$basic_string@DU?$char_traits@D@std@@V?$allocator@D@2@@std@@PEAVMaster_info@@U?$less@V?$basic_string@DU?$char_traits@D@std@@V?$allocator@D@2@@std@@@2@V?$allocator@U?$pair@$$CBV?$basic_string@DU?$char_traits@D@std@@V?$allocator@D@2@@std@@PEAVMaster_info@@@std@@@2@@std@@@std@@PEAX@1@AEBH@Z
??$swap@V?$Prealloced_array@PEAUst_table_rule_ent@@$0BA@$00@@$0A@@std@@YAXAEAV?$Prealloced_array@PEAUst_table_rule_ent@@$0BA@$00@@0@Z
??$_Find_lower_bound@H@?$_Tree@V?$_Tmap_traits@HV?$map@V?$basic_string@DU?$char_traits@D@std@@V?$allocator@D@2@@std@@PEAVMaster_info@@U?$less@V?$basic_string@DU?$char_traits@D@std@@V?$allocator@D@2@@std@@@2@V?$allocator@U?$pair@$$CBV?$basic_string@DU?$char_traits@D@std@@V?$allocator@D@2@@std@@PEAVMaster_info@@@std@@@2@@std@@U?$less@H@2@V?$allocator@U?$pair@$$CBHV?$map@V?$basic_string@DU?$char_traits@D@std@@V?$allocator@D@2@@std@@PEAVMaster_info@@U?$less@V?$basic_string@DU?$char_traits@D@std@@V?$allocator@D@2@@std@@@2@V?$allocator@U?$pair@$$CBV?$basic_string@DU?$char_traits@D@std@@V?$allocator@D@2@@std@@PEAVMaster_info@@@std@@@2@@std@@@std@@@2@$0A@@std@@@std@@IEBA?AU?$_Tree_find_result@PEAU?$_Tree_node@U?$pair@$$CBHV?$map@V?$basic_string@DU?$char_traits@D@std@@V?$allocator@D@2@@std@@PEAVMaster_info@@U?$less@V?$basic_string@DU?$char_traits@D@std@@V?$allocator@D@2@@std@@@2@V?$allocator@U?$pair@$$CBV?$basic_string@DU?$char_traits@D@std@@V?$allocator@D@2@@std@@PEAVMaster_info@@@std@@@2@@std@@@std@@PEAX@std@@@1@AEBH@Z
??$_Debug_lt_pred@AEBU?$less@H@std@@AEBHAEBH$0A@@std@@YA_NAEBU?$less@H@0@AEBH1@Z
?mysql_client_binlog_statement@@YAXPEAVTHD@@@Z
??3Log_event@@SAXPEAX_K@Z
?belongs_to_client@Relay_log_info@@QEAA_NXZ
?binlog_storage_engine@@3Ust_mysql_storage_engine@@A DATA
builtin_binlog_plugin_interface_version DATA
builtin_binlog_sizeof_struct_st_plugin DATA
builtin_binlog_plugin DATA
?log_bin_index@@3PEBDEB DATA
?log_bin_basename@@3PEBDEB DATA
?opt_binlog_order_commits@@3_NA DATA
__local_stdio_printf_options
sprintf
?_Orphan_all@_Container_base12@std@@QEAAXXZ
?_Swap_proxy_and_iterators@_Container_base12@std@@QEAAXAEAU12@@Z
?_Xlen_string@std@@YAXXZ
?_Myptr@?$_String_val@U?$_Simple_types@D@std@@@std@@QEAAPEADXZ
?_Myptr@?$_String_val@U?$_Simple_types@D@std@@@std@@QEBAPEBDXZ
??0?$basic_string@DU?$char_traits@D@std@@V?$allocator@D@2@@std@@QEAA@AEBV?$allocator@D@1@@Z
??0?$basic_string@DU?$char_traits@D@std@@V?$allocator@D@2@@std@@QEAA@QEBD@Z
??0?$basic_string@DU?$char_traits@D@std@@V?$allocator@D@2@@std@@QEAA@$$QEAV01@@Z
?_Take_contents@?$basic_string@DU?$char_traits@D@std@@V?$allocator@D@2@@std@@AEAAXAEAV12@U?$integral_constant@_N$00@2@@Z
??1?$basic_string@DU?$char_traits@D@std@@V?$allocator@D@2@@std@@QEAA@XZ
?assign@?$basic_string@DU?$char_traits@D@std@@V?$allocator@D@2@@std@@QEAAAEAV12@QEBD_K@Z
?max_size@?$basic_string@DU?$char_traits@D@std@@V?$allocator@D@2@@std@@QEBA_KXZ
?_Calculate_growth@?$basic_string@DU?$char_traits@D@std@@V?$allocator@D@2@@std@@AEBA_K_K@Z
?_Tidy_deallocate@?$basic_string@DU?$char_traits@D@std@@V?$allocator@D@2@@std@@AEAAXXZ
??1?$_Compressed_pair@V?$allocator@D@std@@V?$_String_val@U?$_Simple_types@D@std@@@2@$00@std@@QEAA@XZ
?push_back@base_list@@QEAA_NPEAXPEAUst_mem_root@@@Z
??1Stop_event@binary_log@@UEAA@XZ
??1Xid_event@binary_log@@UEAA@XZ
??0XA_prepare_event@binary_log@@QEAA@PEAX_N@Z
??1XA_prepare_event@binary_log@@UEAA@XZ
??1Ignorable_event@binary_log@@UEAA@XZ
?rdlock@Checkable_rwlock@@QEAAXXZ
?assert_some_wrlock@Checkable_rwlock@@QEBAXXZ
?assert_no_wrlock@Checkable_rwlock@@QEBAXXZ
?unlock@Mutex_cond_array@@QEBAXH@Z
?get_mutex_cond@Mutex_cond_array@@AEBAPEAUMutex_cond@1@H@Z
?is_empty@Gtid@@QEBA_NXZ
?dbug_print@Gtid@@QEBAXPEBVSid_map@@PEBD_N@Z
?_add_gtid@Gtid_set@@QEAAXH_J@Z
?is_empty@Gtid_set@@QEBA_NXZ
?dbug_print@Gtid_set@@QEBAXPEBD_NPEBUString_format@1@@Z
?init@?$Interval_iterator_base@PEBVGtid_set@@PEBUInterval@1@@Gtid_set@@QEAAXPEBV2@H@Z
??0?$Interval_iterator_base@PEAVGtid_set@@PEAUInterval@1@@Gtid_set@@QEAA@PEAV1@H@Z
?init@?$Interval_iterator_base@PEAVGtid_set@@PEAUInterval@1@@Gtid_set@@QEAAXPEAV2@H@Z
??0Gtid_iterator@Gtid_set@@QEAA@PEBV1@@Z
?next_sidno@Gtid_iterator@Gtid_set@@AEAAXXZ
?unlock_if_locked@Free_intervals_lock@Gtid_set@@QEAAXXZ
??1Free_intervals_lock@Gtid_set@@QEAA@XZ
?begin_automatic_gtid_violating_transaction@Gtid_state@@QEAAXXZ
?begin_anonymous_gtid_violating_transaction@Gtid_state@@QEAAXXZ
?serialize_xid@@YAPEADPEADJJJPEBD@Z
?get_my_xid@xid_t@@QEBA_KXZ
?set_stmt_unsafe@Query_tables_list@@QEAAXW4enum_binlog_stmt_unsafe@1@@Z
?get_stmt_unsafe_flags@Query_tables_list@@QEBAIXZ
?stmt_accessed_table_string@Query_tables_list@@SAPEBDW4enum_stmt_accessed_table@1@@Z
?set_stmt_accessed_table@Query_tables_list@@QEAAXW4enum_stmt_accessed_table@1@@Z
?stmt_accessed_table@Query_tables_list@@QEAA_NW4enum_stmt_accessed_table@1@@Z
?is_mixed_stmt_unsafe@Query_tables_list@@QEAA_N_N00I@Z
?set_trx_read_write@Ha_trx_info@@QEAAXXZ
?is_trx_read_write@Ha_trx_info@@QEBA_NXZ
?is_trx_noop_read_write@Ha_trx_info@@QEBA_NXZ
?next@Ha_trx_info@@QEBAPEAV1@XZ
?ht@Ha_trx_info@@QEBAPEAUhandlerton@@XZ
?get_locked_tables_mode_name@@YAPEBDW4enum_locked_tables_mode@@@Z
?binlog_row_event_extra_data_eq@THD@@SA_NPEBE0@Z
?binlog_setup_trx_data@THD@@QEAAHXZ
?binlog_write_table_map@THD@@QEAAHPEAUTABLE@@_N1@Z
?binlog_write_row@THD@@QEAAHPEAUTABLE@@_NPEBE2@Z
?binlog_delete_row@THD@@QEAAHPEAUTABLE@@_NPEBE2@Z
?binlog_update_row@THD@@QEAAHPEAUTABLE@@_NPEBE22@Z
?binlog_prepare_row_images@THD@@QEAAXPEAUTABLE@@@Z
?binlog_get_pending_rows_event@THD@@QEBAPEAVRows_log_event@@_N@Z
?binlog_flush_pending_rows_event@THD@@QEAAH_N0@Z
?is_current_stmt_binlog_format_row@THD@@QEBAHXZ
?issue_unsafe_warnings@THD@@QEAAXXZ
?add_to_binlog_accessed_dbs@THD@@QEAAXPEBD@Z
?set_trans_pos@THD@@QEAAXPEBD_K@Z
?get_trans_fixed_pos@THD@@QEBAXPEAPEBDPEA_K@Z
?binlog_query@THD@@QEAAHW4enum_binlog_query_type@1@PEBD_K_N33H@Z
?clear_error@THD@@QEAAXXZ
?is_error@THD@@QEBA_NXZ
?set_current_stmt_binlog_format_row_if_mixed@THD@@QEAAXXZ
?set_current_stmt_binlog_format_row@THD@@QEAAXXZ
?is_binlog_cache_empty@THD@@QEAA_N_N@Z
?query@THD@@QEBAAEBUst_mysql_const_lex_string@@XZ
?decide_logging_format@THD@@QEAAHPEAUTABLE_LIST@@@Z
?is_dml_gtid_compatible@THD@@QEAA_N_N00@Z
?is_ddl_gtid_compatible@THD@@QEAA_NXZ
?my_eof@@YAXPEAVTHD@@@Z
??1TC_LOG@@UEAA@XZ
??0?$_Tree@V?$_Tmap_traits@_K_JU?$less@_K@std@@V?$allocator@U?$pair@$$CB_K_J@std@@@2@$0A@@std@@@std@@QEAA@AEBU?$less@_K@1@@Z
??1?$_Tree@V?$_Tmap_traits@_K_JU?$less@_K@std@@V?$allocator@U?$pair@$$CB_K_J@std@@@2@$0A@@std@@@std@@QEAA@XZ
?_Alloc_sentinel_and_proxy@?$_Tree@V?$_Tmap_traits@_K_JU?$less@_K@std@@V?$allocator@U?$pair@$$CB_K_J@std@@@2@$0A@@std@@@std@@IEAAXXZ
??1Writeset_trx_dependency_tracker@@QEAA@XZ
??0Transaction_dependency_tracker@@QEAA@XZ
?init@Mutex_queue@Stage_manager@@QEAAXI@Z
?deinit@Mutex_queue@Stage_manager@@QEAAXXZ
?append@Mutex_queue@Stage_manager@@QEAA_NPEAVTHD@@@Z
?fetch_and_empty@Mutex_queue@Stage_manager@@QEAAPEAVTHD@@XZ
?pop_front@Mutex_queue@Stage_manager@@QEAA?AU?$pair@_NPEAVTHD@@@std@@XZ
?unlock@Mutex_queue@Stage_manager@@AEAAXXZ
??0Stage_manager@@QEAA@XZ
??1Stage_manager@@QEAA@XZ
?init@Stage_manager@@QEAAXIIIII@Z
?deinit@Stage_manager@@QEAAXXZ
?enroll_for@Stage_manager@@QEAA_NW4StageID@1@PEAVTHD@@PEAUst_mysql_mutex@@@Z
?clear_preempt_status@Stage_manager@@QEAAXPEAVTHD@@@Z
?fetch_queue_for@Stage_manager@@QEAAPEAVTHD@@W4StageID@1@@Z
?wait_count_or_timeout@Stage_manager@@QEAAXKJW4StageID@1@@Z
?signal_done@Stage_manager@@QEAAXPEAVTHD@@@Z
?inc_prep_xids@MYSQL_BIN_LOG@@AEAAXPEAVTHD@@@Z
?dec_prep_xids@MYSQL_BIN_LOG@@AEAAXPEAVTHD@@@Z
?new_file_without_locking@MYSQL_BIN_LOG@@AEAAHPEAVFormat_description_log_event@@@Z
?new_file_impl@MYSQL_BIN_LOG@@AEAAH_NPEAVFormat_description_log_event@@@Z
?open@MYSQL_BIN_LOG@@AEAA_NIPEBD0@Z
?init_and_set_log_file_name@MYSQL_BIN_LOG@@AEAA_NPEBD0@Z
?generate_new_name@MYSQL_BIN_LOG@@AEAAHPEADPEBD@Z
?generate_name@MYSQL_BIN_LOG@@QEAAPEBDPEBD0PEAD@Z
??0MYSQL_BIN_LOG@@QEAA@PEAIW4cache_type@@@Z
?find_first_log_not_in_gtid_set@MYSQL_BIN_LOG@@QEAA_NPEADPEBVGtid_set@@PEAUGtid@@PEAPEBD@Z
?init_gtid_sets@MYSQL_BIN_LOG@@QEAA_NPEAVGtid_set@@0_N1PEAVTransaction_boundary_parser@@PEAUGtid@@1@Z
?gtid_end_transaction@MYSQL_BIN_LOG@@QEAAHPEAVTHD@@@Z
?open@MYSQL_BIN_LOG@@EEAAHPEBD@Z
?change_stage@MYSQL_BIN_LOG@@AEAA_NPEAVTHD@@W4StageID@Stage_manager@@0PEAUst_mysql_mutex@@2@Z
?flush_thread_caches@MYSQL_BIN_LOG@@AEAA?AU?$pair@H_K@std@@PEAVTHD@@@Z
?flush_cache_to_file@MYSQL_BIN_LOG@@AEAAHPEA_K@Z
?finish_commit@MYSQL_BIN_LOG@@AEAAHPEAVTHD@@@Z
?sync_binlog_file@MYSQL_BIN_LOG@@AEAA?AU?$pair@_N_N@std@@_N@Z
?process_commit_stage_queue@MYSQL_BIN_LOG@@AEAAXPEAVTHD@@0@Z
?process_after_commit_stage_queue@MYSQL_BIN_LOG@@AEAAXPEAVTHD@@0@Z
?process_flush_stage_queue@MYSQL_BIN_LOG@@AEAAHPEA_KPEA_NPEAPEAVTHD@@@Z
?ordered_commit@MYSQL_BIN_LOG@@AEAAHPEAVTHD@@_N1@Z
?handle_binlog_flush_or_sync_error@MYSQL_BIN_LOG@@AEAAXPEAVTHD@@_NPEBD@Z
?open_binlog@MYSQL_BIN_LOG@@QEAAHPEBD@Z
?close@MYSQL_BIN_LOG@@UEAAXXZ
?commit@MYSQL_BIN_LOG@@UEAA?AW4enum_result@TC_LOG@@PEAVTHD@@_N@Z
?rollback@MYSQL_BIN_LOG@@UEAAHPEAVTHD@@_N@Z
?prepare@MYSQL_BIN_LOG@@UEAAHPEAVTHD@@_N@Z
?recover@MYSQL_BIN_LOG@@QEAAHPEAUst_io_cache@@PEAVFormat_description_log_event@@PEA_K@Z
?update_thd_next_event_pos@MYSQL_BIN_LOG@@QEAAXPEAVTHD@@@Z
?flush_and_set_pending_rows_event@MYSQL_BIN_LOG@@QEAAHPEAVTHD@@PEAVRows_log_event@@_N@Z
?harvest_bytes_written@MYSQL_BIN_LOG@@QEAAXPEAVRelay_log_info@@_N@Z
?set_max_size@MYSQL_BIN_LOG@@QEAAXK@Z
?signal_update@MYSQL_BIN_LOG@@QEAAXXZ
?update_binlog_end_pos@MYSQL_BIN_LOG@@QEAAXXZ
?update_binlog_end_pos@MYSQL_BIN_LOG@@QEAAXPEBD_K@Z
?wait_for_update_relay_log@MYSQL_BIN_LOG@@QEAAHPEAVTHD@@PEBUtimespec@@@Z
?wait_for_update_bin_log@MYSQL_BIN_LOG@@QEAAHPEAVTHD@@PEBUtimespec@@@Z
?do_write_cache@MYSQL_BIN_LOG@@QEAA_NPEAUst_io_cache@@PEAVBinlog_event_writer@@@Z
?init_pthread_objects@MYSQL_BIN_LOG@@QEAAXXZ
?cleanup@MYSQL_BIN_LOG@@QEAAXXZ
?open_binlog@MYSQL_BIN_LOG@@QEAA_NPEBD0K_N11PEAVFormat_description_log_event@@@Z
?open_index_file@MYSQL_BIN_LOG@@QEAA_NPEBD0_N@Z
?new_file@MYSQL_BIN_LOG@@QEAAHPEAVFormat_description_log_event@@@Z
?write_event@MYSQL_BIN_LOG@@QEAA_NPEAVLog_event@@@Z
?write_cache@MYSQL_BIN_LOG@@QEAA_NPEAVTHD@@PEAVbinlog_cache_data@@PEAVBinlog_event_writer@@@Z
?assign_automatic_gtids_to_flush_group@MYSQL_BIN_LOG@@QEAA_NPEAVTHD@@@Z
?write_gtid@MYSQL_BIN_LOG@@QEAA_NPEAVTHD@@PEAVbinlog_cache_data@@PEAVBinlog_event_writer@@@Z
?write_stmt_directly@MYSQL_BIN_LOG@@QEAA_NPEAVTHD@@PEBD_KW4enum_sql_command@@@Z
?set_write_error@MYSQL_BIN_LOG@@QEAAXPEAVTHD@@_N@Z
?check_write_error@MYSQL_BIN_LOG@@QEAA_NPEAVTHD@@@Z
?write_incident@MYSQL_BIN_LOG@@QEAA_NPEAVTHD@@_NPEBD1@Z
?write_incident@MYSQL_BIN_LOG@@QEAA_NPEAVIncident_log_event@@PEAVTHD@@_NPEBD2@Z
?start_union_events@MYSQL_BIN_LOG@@QEAAXPEAVTHD@@_J@Z
?stop_union_events@MYSQL_BIN_LOG@@QEAAXPEAVTHD@@@Z
?is_query_in_union@MYSQL_BIN_LOG@@QEAA_NPEAVTHD@@_J@Z
?append_buffer@MYSQL_BIN_LOG@@QEAA_NPEBDIPEAVMaster_info@@@Z
?append_event@MYSQL_BIN_LOG@@QEAA_NPEAVLog_event@@PEAVMaster_info@@@Z
?after_append_to_relay_log@MYSQL_BIN_LOG@@AEAA_NPEAVMaster_info@@@Z
?make_log_name@MYSQL_BIN_LOG@@QEAAXPEADPEBD@Z
?is_active@MYSQL_BIN_LOG@@QEAA_NPEBD@Z
?remove_logs_from_index@MYSQL_BIN_LOG@@QEAAHPEAUst_log_info@@_N@Z
?rotate@MYSQL_BIN_LOG@@QEAAH_NPEA_N@Z
?purge@MYSQL_BIN_LOG@@QEAAXXZ
?rotate_and_purge@MYSQL_BIN_LOG@@QEAAHPEAVTHD@@_N@Z
?flush_and_sync@MYSQL_BIN_LOG@@QEAA_N_N@Z
?purge_logs@MYSQL_BIN_LOG@@QEAAHPEBD_N11PEA_K1@Z
?purge_logs_before_date@MYSQL_BIN_LOG@@QEAAH_J_N@Z
?purge_first_log@MYSQL_BIN_LOG@@QEAAHPEAVRelay_log_info@@_N@Z
?set_crash_safe_index_file_name@MYSQL_BIN_LOG@@QEAAHPEBD@Z
?open_crash_safe_index_file@MYSQL_BIN_LOG@@QEAAHXZ
?close_crash_safe_index_file@MYSQL_BIN_LOG@@QEAAHXZ
?add_log_to_index@MYSQL_BIN_LOG@@QEAAHPEAE_K_N@Z
?move_crash_safe_index_file_to_index_file@MYSQL_BIN_LOG@@QEAAH_N@Z
?set_purge_index_file_name@MYSQL_BIN_LOG@@QEAAHPEBD@Z
?open_purge_index_file@MYSQL_BIN_LOG@@QEAAH_N@Z
?is_inited_purge_index_file@MYSQL_BIN_LOG@@QEAA_NXZ
?close_purge_index_file@MYSQL_BIN_LOG@@QEAAHXZ
?sync_purge_index_file@MYSQL_BIN_LOG@@QEAAHXZ
?register_purge_index_entry@MYSQL_BIN_LOG@@QEAAHPEBD@Z
?register_create_index_entry@MYSQL_BIN_LOG@@QEAAHPEBD@Z
?purge_index_entry@MYSQL_BIN_LOG@@QEAAHPEAVTHD@@PEA_K_N@Z
?reset_logs@MYSQL_BIN_LOG@@QEAA_NPEAVTHD@@_N@Z
?close@MYSQL_BIN_LOG@@QEAAXI_N0@Z
?find_log_pos@MYSQL_BIN_LOG@@QEAAHPEAUst_log_info@@PEBD_N@Z
?find_next_log@MYSQL_BIN_LOG@@QEAAHPEAUst_log_info@@_N@Z
?find_next_relay_log@MYSQL_BIN_LOG@@QEAAHQEAD@Z
?get_current_log@MYSQL_BIN_LOG@@QEAAHPEAUst_log_info@@_N@Z
?raw_get_current_log@MYSQL_BIN_LOG@@QEAAHPEAUst_log_info@@@Z
?next_file_id@MYSQL_BIN_LOG@@QEAAIXZ
?report_missing_purged_gtids@MYSQL_BIN_LOG@@QEAAXPEBVGtid_set@@PEAPEBD@Z
?report_missing_gtids@MYSQL_BIN_LOG@@QEAAXPEBVGtid_set@@0PEAPEBD@Z
?unlock_binlog_end_pos@MYSQL_BIN_LOG@@QEAAXXZ
?get_gtid_executed@MYSQL_BIN_LOG@@QEAAHPEAVSid_map@@PEAVGtid_set@@@Z
?is_transaction_empty@@YA_NPEAVTHD@@@Z
?check_trx_rw_engines@@YAHPEAVTHD@@W4enum_trx_scope@Transaction_ctx@@@Z
?is_empty_transaction_in_binlog_cache@@YA_NPEBVTHD@@@Z
?trans_has_updated_trans_table@@YA_NPEBVTHD@@@Z
?stmt_has_updated_trans_table@@YA_NPEAVHa_trx_info@@@Z
?trans_has_noop_dml@@YA_NPEAVHa_trx_info@@@Z
?ending_trans@@YA_NPEAVTHD@@_N@Z
?ending_single_stmt_trans@@YA_NPEAVTHD@@_N@Z
?trans_cannot_safely_rollback@@YA_NPEBVTHD@@@Z
?stmt_cannot_safely_rollback@@YA_NPEBVTHD@@@Z
?log_loaded_block@@YAHPEAUst_io_cache@@@Z
?open_binlog_file@@YAHPEAUst_io_cache@@PEBDPEAPEBD@Z
?check_binlog_magic@@YAHPEAUst_io_cache@@PEAPEBD@Z
?purge_master_logs@@YA_NPEAVTHD@@PEBD@Z
?purge_master_logs_before_date@@YA_NPEAVTHD@@_J@Z
?show_binlog_events@@YA_NPEAVTHD@@PEAVMYSQL_BIN_LOG@@@Z
?mysql_show_binlog_events@@YA_NPEAVTHD@@@Z
?check_binlog_cache_size@@YAXPEAVTHD@@@Z
?check_binlog_stmt_cache_size@@YAXPEAVTHD@@@Z
?binlog_enabled@@YA_NXZ
?register_binlog_handler@@YAXPEAVTHD@@_N@Z
?query_error_code@@YAHPEAVTHD@@_N@Z
?normalize_binlog_name@@YA_NPEADPEBD_N@Z
??1Query_event@binary_log@@UEAA@XZ
??0User_var_event@binary_log@@QEAA@PEBDIPEADKW4Value_type@01@IE@Z
??1User_var_event@binary_log@@UEAA@XZ
??0Intvar_event@binary_log@@QEAA@E_K@Z
??1Intvar_event@binary_log@@UEAA@XZ
??0Rand_event@binary_log@@QEAA@_K0@Z
??1Rand_event@binary_log@@UEAA@XZ
??_DBegin_load_query_event@binary_log@@QEAAXXZ
??0Rows_query_event@binary_log@@QEAA@XZ
?write_data_header@Log_event@@UEAA_NPEAUst_io_cache@@@Z
?write_data_body@Log_event@@UEAA_NPEAUst_io_cache@@@Z
?get_data_size@Log_event@@UEAA_KXZ
?ends_group@Log_event@@UEAA_NXZ
?do_apply_event@Log_event@@UEAAHPEBVRelay_log_info@@@Z
?get_db@Query_log_event@@UEAAPEBDXZ
?get_mts_dbs@Query_log_event@@UEAAEPEAUst_mts_db_names@@@Z
?mts_number_dbs@Query_log_event@@UEAAEXZ
??1Query_log_event@@UEAA@XZ
?write_post_header_for_derived@Query_log_event@@UEAA_NPEAUst_io_cache@@@Z
?get_post_header_size_for_derived@Query_log_event@@UEAAKXZ
?is_trans_keyword@Query_log_event@@QEBA_NXZ
?is_sbr_logging_format@Query_log_event@@UEBA_NXZ
?starts_group@Query_log_event@@UEAA_NXZ
?ends_group@Query_log_event@@UEAA_NXZ
??_DQuery_log_event@@QEAAXXZ
??1Start_log_event_v3@@UEAA@XZ
?get_data_size@Start_log_event_v3@@UEAA_KXZ
?do_shall_skip@Start_log_event_v3@@MEAA?AW4enum_skip_reason@Log_event@@PEAVRelay_log_info@@@Z
??_DFormat_description_log_event@@QEAAXXZ
??0Intvar_log_event@@QEAA@PEAVTHD@@E_KW4enum_event_cache_type@Log_event@@W4enum_event_logging_type@3@@Z
??1Intvar_log_event@@UEAA@XZ
?get_data_size@Intvar_log_event@@UEAA_KXZ
?is_sbr_logging_format@Intvar_log_event@@UEBA_NXZ
??1Rand_log_event@@UEAA@XZ
?get_data_size@Rand_log_event@@UEAA_KXZ
?is_sbr_logging_format@Rand_log_event@@UEBA_NXZ
??0Xid_apply_log_event@@IEAA@PEAVTHD@@PEAVLog_event_header@binary_log@@PEAVLog_event_footer@3@@Z
??1Xid_apply_log_event@@MEAA@XZ
?ends_group@Xid_apply_log_event@@MEAA_NXZ
??0Xid_log_event@@QEAA@PEAVTHD@@_K@Z
??1Xid_log_event@@UEAA@XZ
?get_data_size@Xid_log_event@@UEAA_KXZ
?get_data_size@XA_prepare_log_event@@UEAA_KXZ
??1XA_prepare_log_event@@UEAA@XZ
??1User_var_log_event@@UEAA@XZ
?is_sbr_logging_format@User_var_log_event@@UEBA_NXZ
??0Stop_log_event@@QEAA@XZ
??1Stop_log_event@@UEAA@XZ
?do_shall_skip@Stop_log_event@@EEAA?AW4enum_skip_reason@Log_event@@PEAVRelay_log_info@@@Z
??1Rotate_log_event@@UEAA@XZ
?get_data_size@Rotate_log_event@@UEAA_KXZ
??1Append_block_log_event@@UEAA@XZ
?get_data_size@Append_block_log_event@@UEAA_KXZ
?get_db@Append_block_log_event@@UEAAPEBDXZ
?is_sbr_logging_format@Append_block_log_event@@UEBA_NXZ
??_DAppend_block_log_event@@QEAAXXZ
??1Begin_load_query_log_event@@UEAA@XZ
??_DBegin_load_query_log_event@@QEAAXXZ
?set_flags@Rows_log_event@@QEAAXG@Z
??0Ignorable_log_event@@QEAA@PEAVTHD@@@Z
?get_data_size@Ignorable_log_event@@UEAA_KXZ
??0Rows_query_log_event@@QEAA@PEAVTHD@@PEBD_K@Z
??1Rows_query_log_event@@UEAA@XZ
?get_data_size@Rows_query_log_event@@UEAA_KXZ
??_DRows_query_log_event@@QEAAXXZ
??1Gtid_log_event@@UEAA@XZ
?get_data_size@Gtid_log_event@@UEAA_KXZ
?write_to_memory@Gtid_log_event@@QEAAIPEAE@Z
??1Previous_gtids_log_event@@UEAA@XZ
?get_data_size@Previous_gtids_log_event@@UEAA_KXZ
?write@Previous_gtids_log_event@@UEAA_NPEAUst_io_cache@@@Z
?do_shall_skip@Previous_gtids_log_event@@UEAA?AW4enum_skip_reason@Log_event@@PEAVRelay_log_info@@@Z
?do_apply_event@Previous_gtids_log_event@@UEAAHPEBVRelay_log_info@@@Z
?add_logged_gtid@Relay_log_info@@QEAAXH_J@Z
?is_in_stmt@Relay_log_info@@AEBA_NXZ
?is_in_trx_or_stmt@Relay_log_info@@AEBA_NXZ
?is_in_group@Relay_log_info@@QEBA_NXZ
??0Thd_backup_and_restore@@QEAA@PEAVTHD@@0@Z
??1Thd_backup_and_restore@@QEAA@XZ
?attach_to@Thd_backup_and_restore@@AEAAHPEAVTHD@@@Z
??0binlog_cache_data@@QEAA@_N_KPEAK2AEBUst_io_cache@@@Z
?finalize@binlog_cache_data@@QEAAHPEAVTHD@@PEAVLog_event@@@Z
?finalize@binlog_cache_data@@QEAAHPEAVTHD@@PEAVLog_event@@PEAVXID_STATE@@@Z
?flush@binlog_cache_data@@QEAAHPEAVTHD@@PEA_KPEA_N@Z
?write_event@binlog_cache_data@@QEAAHPEAVTHD@@PEAVLog_event@@@Z
??1binlog_cache_data@@UEAA@XZ
?is_binlog_empty@binlog_cache_data@@QEBA_NXZ
?set_flush_error@binlog_cache_data@@QEAAXPEAVTHD@@@Z
?has_xid@binlog_cache_data@@QEBA_NXZ
?cache_state_rollback@binlog_cache_data@@QEAAX_K@Z
?cache_state_checkpoint@binlog_cache_data@@QEAAX_K@Z
?reset@binlog_cache_data@@UEAAXXZ
?has_empty_transaction@binlog_cache_data@@QEAA_NXZ
??0?$_Tree@V?$_Tmap_traits@_KUcache_state@binlog_cache_data@@U?$less@_K@std@@V?$allocator@U?$pair@$$CB_KUcache_state@binlog_cache_data@@@std@@@4@$0A@@std@@@std@@QEAA@AEBU?$less@_K@1@@Z
??1?$_Tree@V?$_Tmap_traits@_KUcache_state@binlog_cache_data@@U?$less@_K@std@@V?$allocator@U?$pair@$$CB_KUcache_state@binlog_cache_data@@@std@@@4@$0A@@std@@@std@@QEAA@XZ
?end@?$_Tree@V?$_Tmap_traits@_KUcache_state@binlog_cache_data@@U?$less@_K@std@@V?$allocator@U?$pair@$$CB_KUcache_state@binlog_cache_data@@@std@@@4@$0A@@std@@@std@@QEAA?AV?$_Tree_iterator@V?$_Tree_val@U?$_Tree_simple_types@U?$pair@$$CB_KUcache_state@binlog_cache_data@@@std@@@std@@@std@@@2@XZ
?clear@?$_Tree@V?$_Tmap_traits@_KUcache_state@binlog_cache_data@@U?$less@_K@std@@V?$allocator@U?$pair@$$CB_KUcache_state@binlog_cache_data@@@std@@@4@$0A@@std@@@std@@QEAAXXZ
?_Check_grow_by_1@?$_Tree@V?$_Tmap_traits@_KUcache_state@binlog_cache_data@@U?$less@_K@std@@V?$allocator@U?$pair@$$CB_KUcache_state@binlog_cache_data@@@std@@@4@$0A@@std@@@std@@IEAAXXZ
?_Alloc_sentinel_and_proxy@?$_Tree@V?$_Tmap_traits@_KUcache_state@binlog_cache_data@@U?$less@_K@std@@V?$allocator@U?$pair@$$CB_KUcache_state@binlog_cache_data@@@std@@@4@$0A@@std@@@std@@IEAAXXZ
?_Lrotate@?$_Tree_val@U?$_Tree_simple_types@U?$pair@$$CB_KUcache_state@binlog_cache_data@@@std@@@std@@@std@@QEAAXPEAU?$_Tree_node@U?$pair@$$CB_KUcache_state@binlog_cache_data@@@std@@PEAX@2@@Z
?_Rrotate@?$_Tree_val@U?$_Tree_simple_types@U?$pair@$$CB_KUcache_state@binlog_cache_data@@@std@@@std@@@std@@QEAAXPEAU?$_Tree_node@U?$pair@$$CB_KUcache_state@binlog_cache_data@@@std@@PEAX@2@@Z
?_Insert_node@?$_Tree_val@U?$_Tree_simple_types@U?$pair@$$CB_KUcache_state@binlog_cache_data@@@std@@@std@@@std@@QEAAPEAU?$_Tree_node@U?$pair@$$CB_KUcache_state@binlog_cache_data@@@std@@PEAX@2@U?$_Tree_id@PEAU?$_Tree_node@U?$pair@$$CB_KUcache_state@binlog_cache_data@@@std@@PEAX@std@@@2@QEAU32@@Z
?_Orphan_ptr@?$_Tree_val@U?$_Tree_simple_types@U?$pair@$$CB_KUcache_state@binlog_cache_data@@@std@@@std@@@std@@QEAAXQEAU?$_Tree_node@U?$pair@$$CB_KUcache_state@binlog_cache_data@@@std@@PEAX@2@@Z
??1?$map@_KUcache_state@binlog_cache_data@@U?$less@_K@std@@V?$allocator@U?$pair@$$CB_KUcache_state@binlog_cache_data@@@std@@@4@@std@@QEAA@XZ
?truncate@binlog_cache_data@@IEAAX_K@Z
?flush_pending_event@binlog_cache_data@@IEAAHPEAVTHD@@@Z
?compute_statistics@binlog_cache_data@@AEAAXXZ
??0?$_Tree_unchecked_const_iterator@V?$_Tree_val@U?$_Tree_simple_types@U?$pair@$$CB_KUcache_state@binlog_cache_data@@@std@@@std@@@std@@U_Iterator_base12@2@@std@@QEAA@XZ
??D?$_Tree_const_iterator@V?$_Tree_val@U?$_Tree_simple_types@U?$pair@$$CB_KUcache_state@binlog_cache_data@@@std@@@std@@@std@@@std@@QEBAAEBU?$pair@$$CB_KUcache_state@binlog_cache_data@@@1@XZ
??8?$_Tree_const_iterator@V?$_Tree_val@U?$_Tree_simple_types@U?$pair@$$CB_KUcache_state@binlog_cache_data@@@std@@@std@@@std@@@std@@QEBA_NAEBV01@@Z
??0?$_Tree_const_iterator@V?$_Tree_val@U?$_Tree_simple_types@U?$pair@$$CB_KUcache_state@binlog_cache_data@@@std@@@std@@@std@@@std@@QEAA@PEAU?$_Tree_node@U?$pair@$$CB_KUcache_state@binlog_cache_data@@@std@@PEAX@1@PEBV?$_Tree_val@U?$_Tree_simple_types@U?$pair@$$CB_KUcache_state@binlog_cache_data@@@std@@@std@@@1@@Z
??1?$_Tree_iterator@V?$_Tree_val@U?$_Tree_simple_types@U?$pair@$$CB_KUcache_state@binlog_cache_data@@@std@@@std@@@std@@@std@@QEAA@XZ
??0?$_Tree_iterator@V?$_Tree_val@U?$_Tree_simple_types@U?$pair@$$CB_KUcache_state@binlog_cache_data@@@std@@@std@@@std@@@std@@QEAA@PEAU?$_Tree_node@U?$pair@$$CB_KUcache_state@binlog_cache_data@@@std@@PEAX@1@PEBV?$_Tree_val@U?$_Tree_simple_types@U?$pair@$$CB_KUcache_state@binlog_cache_data@@@std@@@std@@@1@@Z
?finalize@binlog_stmt_cache_data@@QEAAHPEAVTHD@@@Z
??1binlog_stmt_cache_data@@UEAA@XZ
?reset@binlog_trx_cache_data@@UEAAXXZ
?set_prev_position@binlog_trx_cache_data@@QEAAX_K@Z
?restore_prev_position@binlog_trx_cache_data@@QEAAXXZ
?restore_savepoint@binlog_trx_cache_data@@QEAAX_K@Z
?truncate@binlog_trx_cache_data@@QEAAHPEAVTHD@@_N@Z
?is_binlog_empty@binlog_cache_mngr@@QEBA_NXZ
?reset@binlog_cache_mngr@@QEAAXXZ
?dbug_any_finalized@binlog_cache_mngr@@QEBA_NXZ
?flush@binlog_cache_mngr@@QEAAHPEAVTHD@@PEA_KPEA_N@Z
?has_empty_transaction@binlog_cache_mngr@@QEAA_NXZ
??0Binlog_event_writer@@QEAA@PEAUst_io_cache@@@Z
?write_event_part@Binlog_event_writer@@QEAA_NPEAPEAEPEAI1@Z
?write_full_event@Binlog_event_writer@@QEAA_NPEAEI@Z
?is_loggable_xa_prepare@@YA_NPEAVTHD@@@Z
?do_binlog_xa_commit_rollback@@YAHPEAVTHD@@PEAUxid_t@@_N@Z
?binlog_xa_commit_or_rollback@@YAHPEAVTHD@@PEAUxid_t@@_N@Z
??RAdjust_offset@@UEAAXPEAVTHD@@@Z
??1Adjust_offset@@UEAA@XZ
??RLog_in_use@@UEAAXPEAVTHD@@@Z
??1Log_in_use@@UEAA@XZ
??0?$list@V?$basic_string@DU?$char_traits@D@std@@V?$allocator@D@2@@std@@V?$allocator@V?$basic_string@DU?$char_traits@D@std@@V?$allocator@D@2@@std@@@2@@std@@QEAA@XZ
??1?$list@V?$basic_string@DU?$char_traits@D@std@@V?$allocator@D@2@@std@@V?$allocator@V?$basic_string@DU?$char_traits@D@std@@V?$allocator@D@2@@std@@@2@@std@@QEAA@XZ
?begin@?$list@V?$basic_string@DU?$char_traits@D@std@@V?$allocator@D@2@@std@@V?$allocator@V?$basic_string@DU?$char_traits@D@std@@V?$allocator@D@2@@std@@@2@@std@@QEAA?AV?$_List_iterator@V?$_List_val@U?$_List_simple_types@V?$basic_string@DU?$char_traits@D@std@@V?$allocator@D@2@@std@@@std@@@std@@@2@XZ
?end@?$list@V?$basic_string@DU?$char_traits@D@std@@V?$allocator@D@2@@std@@V?$allocator@V?$basic_string@DU?$char_traits@D@std@@V?$allocator@D@2@@std@@@2@@std@@QEAA?AV?$_List_iterator@V?$_List_val@U?$_List_simple_types@V?$basic_string@DU?$char_traits@D@std@@V?$allocator@D@2@@std@@@std@@@std@@@2@XZ
?rend@?$list@V?$basic_string@DU?$char_traits@D@std@@V?$allocator@D@2@@std@@V?$allocator@V?$basic_string@DU?$char_traits@D@std@@V?$allocator@D@2@@std@@@2@@std@@QEAA?AV?$reverse_iterator@V?$_List_iterator@V?$_List_val@U?$_List_simple_types@V?$basic_string@DU?$char_traits@D@std@@V?$allocator@D@2@@std@@@std@@@std@@@std@@@2@XZ
?pop_back@?$list@V?$basic_string@DU?$char_traits@D@std@@V?$allocator@D@2@@std@@V?$allocator@V?$basic_string@DU?$char_traits@D@std@@V?$allocator@D@2@@std@@@2@@std@@QEAAXXZ
?_Unchecked_erase@?$list@V?$basic_string@DU?$char_traits@D@std@@V?$allocator@D@2@@std@@V?$allocator@V?$basic_string@DU?$char_traits@D@std@@V?$allocator@D@2@@std@@@2@@std@@AEAAPEAU?$_List_node@V?$basic_string@DU?$char_traits@D@std@@V?$allocator@D@2@@std@@PEAX@2@QEAU32@@Z
?clear@?$list@V?$basic_string@DU?$char_traits@D@std@@V?$allocator@D@2@@std@@V?$allocator@V?$basic_string@DU?$char_traits@D@std@@V?$allocator@D@2@@std@@@2@@std@@QEAAXXZ
?_Tidy@?$list@V?$basic_string@DU?$char_traits@D@std@@V?$allocator@D@2@@std@@V?$allocator@V?$basic_string@DU?$char_traits@D@std@@V?$allocator@D@2@@std@@@2@@std@@AEAAXXZ
?_Alloc_sentinel_and_proxy@?$list@V?$basic_string@DU?$char_traits@D@std@@V?$allocator@D@2@@std@@V?$allocator@V?$basic_string@DU?$char_traits@D@std@@V?$allocator@D@2@@std@@@2@@std@@AEAAXXZ
?_Orphan_ptr2@?$_List_val@U?$_List_simple_types@V?$basic_string@DU?$char_traits@D@std@@V?$allocator@D@2@@std@@@std@@@std@@QEAAXPEAU?$_List_node@V?$basic_string@DU?$char_traits@D@std@@V?$allocator@D@2@@std@@PEAX@2@@Z
?_Orphan_non_end@?$_List_val@U?$_List_simple_types@V?$basic_string@DU?$char_traits@D@std@@V?$allocator@D@2@@std@@@std@@@std@@QEAAXXZ
??4?$_List_unchecked_const_iterator@V?$_List_val@U?$_List_simple_types@V?$basic_string@DU?$char_traits@D@std@@V?$allocator@D@2@@std@@@std@@@std@@U_Iterator_base12@2@@std@@QEAAAEAV01@$$QEAV01@@Z
??D?$_List_const_iterator@V?$_List_val@U?$_List_simple_types@V?$basic_string@DU?$char_traits@D@std@@V?$allocator@D@2@@std@@@std@@@std@@@std@@QEBAAEBV?$basic_string@DU?$char_traits@D@std@@V?$allocator@D@2@@1@XZ
??E?$_List_const_iterator@V?$_List_val@U?$_List_simple_types@V?$basic_string@DU?$char_traits@D@std@@V?$allocator@D@2@@std@@@std@@@std@@@std@@QEAAAEAV01@XZ
??F?$_List_const_iterator@V?$_List_val@U?$_List_simple_types@V?$basic_string@DU?$char_traits@D@std@@V?$allocator@D@2@@std@@@std@@@std@@@std@@QEAAAEAV01@XZ
??8?$_List_const_iterator@V?$_List_val@U?$_List_simple_types@V?$basic_string@DU?$char_traits@D@std@@V?$allocator@D@2@@std@@@std@@@std@@@std@@QEBA_NAEBV01@@Z
?_Verify_range@std@@YAXAEBV?$_List_const_iterator@V?$_List_val@U?$_List_simple_types@V?$basic_string@DU?$char_traits@D@std@@V?$allocator@D@2@@std@@@std@@@std@@@1@0@Z
??0?$_List_const_iterator@V?$_List_val@U?$_List_simple_types@V?$basic_string@DU?$char_traits@D@std@@V?$allocator@D@2@@std@@@std@@@std@@@std@@QEAA@XZ
??0?$_List_const_iterator@V?$_List_val@U?$_List_simple_types@V?$basic_string@DU?$char_traits@D@std@@V?$allocator@D@2@@std@@@std@@@std@@@std@@QEAA@AEBV01@@Z
??0?$_List_const_iterator@V?$_List_val@U?$_List_simple_types@V?$basic_string@DU?$char_traits@D@std@@V?$allocator@D@2@@std@@@std@@@std@@@std@@QEAA@PEAU?$_List_node@V?$basic_string@DU?$char_traits@D@std@@V?$allocator@D@2@@std@@PEAX@1@PEBV?$_List_val@U?$_List_simple_types@V?$basic_string@DU?$char_traits@D@std@@V?$allocator@D@2@@std@@@std@@@1@@Z
??0?$_List_iterator@V?$_List_val@U?$_List_simple_types@V?$basic_string@DU?$char_traits@D@std@@V?$allocator@D@2@@std@@@std@@@std@@@std@@QEAA@XZ
??1?$_List_iterator@V?$_List_val@U?$_List_simple_types@V?$basic_string@DU?$char_traits@D@std@@V?$allocator@D@2@@std@@@std@@@std@@@std@@QEAA@XZ
??0?$_List_iterator@V?$_List_val@U?$_List_simple_types@V?$basic_string@DU?$char_traits@D@std@@V?$allocator@D@2@@std@@@std@@@std@@@std@@QEAA@AEBV01@@Z
??0?$_List_iterator@V?$_List_val@U?$_List_simple_types@V?$basic_string@DU?$char_traits@D@std@@V?$allocator@D@2@@std@@@std@@@std@@@std@@QEAA@$$QEAV01@@Z
??0?$_List_iterator@V?$_List_val@U?$_List_simple_types@V?$basic_string@DU?$char_traits@D@std@@V?$allocator@D@2@@std@@@std@@@std@@@std@@QEAA@PEAU?$_List_node@V?$basic_string@DU?$char_traits@D@std@@V?$allocator@D@2@@std@@PEAX@1@PEBV?$_List_val@U?$_List_simple_types@V?$basic_string@DU?$char_traits@D@std@@V?$allocator@D@2@@std@@@std@@@1@@Z
??0?$reverse_iterator@V?$_List_iterator@V?$_List_val@U?$_List_simple_types@V?$basic_string@DU?$char_traits@D@std@@V?$allocator@D@2@@std@@@std@@@std@@@std@@@std@@QEAA@V?$_List_iterator@V?$_List_val@U?$_List_simple_types@V?$basic_string@DU?$char_traits@D@std@@V?$allocator@D@2@@std@@@std@@@std@@@1@@Z
??D?$reverse_iterator@V?$_List_iterator@V?$_List_val@U?$_List_simple_types@V?$basic_string@DU?$char_traits@D@std@@V?$allocator@D@2@@std@@@std@@@std@@@std@@@std@@QEBAAEAV?$basic_string@DU?$char_traits@D@std@@V?$allocator@D@2@@1@XZ
??C?$reverse_iterator@V?$_List_iterator@V?$_List_val@U?$_List_simple_types@V?$basic_string@DU?$char_traits@D@std@@V?$allocator@D@2@@std@@@std@@@std@@@std@@@std@@QEBAPEAV?$basic_string@DU?$char_traits@D@std@@V?$allocator@D@2@@1@XZ
??E?$reverse_iterator@V?$_List_iterator@V?$_List_val@U?$_List_simple_types@V?$basic_string@DU?$char_traits@D@std@@V?$allocator@D@2@@std@@@std@@@std@@@std@@@std@@QEAA?AV01@H@Z
??F?$reverse_iterator@V?$_List_iterator@V?$_List_val@U?$_List_simple_types@V?$basic_string@DU?$char_traits@D@std@@V?$allocator@D@2@@std@@@std@@@std@@@std@@@std@@QEAA?AV01@H@Z
??1?$reverse_iterator@V?$_List_iterator@V?$_List_val@U?$_List_simple_types@V?$basic_string@DU?$char_traits@D@std@@V?$allocator@D@2@@std@@@std@@@std@@@std@@@std@@QEAA@XZ
??$find@V?$_List_iterator@V?$_List_val@U?$_List_simple_types@V?$basic_string@DU?$char_traits@D@std@@V?$allocator@D@2@@std@@@std@@@std@@@std@@V?$basic_string@DU?$char_traits@D@std@@V?$allocator@D@2@@2@@std@@YA?AV?$_List_iterator@V?$_List_val@U?$_List_simple_types@V?$basic_string@DU?$char_traits@D@std@@V?$allocator@D@2@@std@@@std@@@std@@@0@V10@V10@AEBV?$basic_string@DU?$char_traits@D@std@@V?$allocator@D@2@@0@@Z
??0?$basic_ostringstream@DU?$char_traits@D@std@@V?$allocator@D@2@@std@@QEAA@XZ
??1?$basic_ostringstream@DU?$char_traits@D@std@@V?$allocator@D@2@@std@@UEAA@XZ
??0?$basic_stringbuf@DU?$char_traits@D@std@@V?$allocator@D@2@@std@@QEAA@H@Z
?str@?$basic_stringbuf@DU?$char_traits@D@std@@V?$allocator@D@2@@std@@QEBA?AV?$basic_string@DU?$char_traits@D@std@@V?$allocator@D@2@@2@XZ
?str@?$basic_stringbuf@DU?$char_traits@D@std@@V?$allocator@D@2@@std@@QEAAXAEBV?$basic_string@DU?$char_traits@D@std@@V?$allocator@D@2@@2@@Z
?overflow@?$basic_stringbuf@DU?$char_traits@D@std@@V?$allocator@D@2@@std@@MEAAHH@Z
?pbackfail@?$basic_stringbuf@DU?$char_traits@D@std@@V?$allocator@D@2@@std@@MEAAHH@Z
?underflow@?$basic_stringbuf@DU?$char_traits@D@std@@V?$allocator@D@2@@std@@MEAAHXZ
?seekoff@?$basic_stringbuf@DU?$char_traits@D@std@@V?$allocator@D@2@@std@@MEAA?AV?$fpos@U_Mbstatet@@@2@_JHH@Z
?seekpos@?$basic_stringbuf@DU?$char_traits@D@std@@V?$allocator@D@2@@std@@MEAA?AV?$fpos@U_Mbstatet@@@2@V32@H@Z
?_Init@?$basic_stringbuf@DU?$char_traits@D@std@@V?$allocator@D@2@@std@@IEAAXPEBD_KH@Z
?_Tidy@?$basic_stringbuf@DU?$char_traits@D@std@@V?$allocator@D@2@@std@@IEAAXXZ
??_D?$basic_ostringstream@DU?$char_traits@D@std@@V?$allocator@D@2@@std@@QEAAXXZ
??$?6U?$char_traits@D@std@@@std@@YAAEAV?$basic_ostream@DU?$char_traits@D@std@@@0@AEAV10@PEBD@Z
??$binlog_prepare_pending_rows_event@VWrite_rows_log_event@@@THD@@QEAAPEAVRows_log_event@@PEAUTABLE@@I_K_NPEAVWrite_rows_log_event@@PEBE@Z
??$binlog_prepare_pending_rows_event@VUpdate_rows_log_event@@@THD@@QEAAPEAVRows_log_event@@PEAUTABLE@@I_K_NPEAVUpdate_rows_log_event@@PEBE@Z
??$binlog_prepare_pending_rows_event@VDelete_rows_log_event@@@THD@@QEAAPEAVRows_log_event@@PEAUTABLE@@I_K_NPEAVDelete_rows_log_event@@PEBE@Z
??$_Delete_plain_internal@V?$allocator@U_Container_proxy@std@@@std@@@std@@YAXAEAV?$allocator@U_Container_proxy@std@@@0@QEAU_Container_proxy@0@@Z
??$_Emplace@V?$basic_string@DU?$char_traits@D@std@@V?$allocator@D@2@@std@@@?$list@V?$basic_string@DU?$char_traits@D@std@@V?$allocator@D@2@@std@@V?$allocator@V?$basic_string@DU?$char_traits@D@std@@V?$allocator@D@2@@std@@@2@@std@@QEAAPEAU?$_List_node@V?$basic_string@DU?$char_traits@D@std@@V?$allocator@D@2@@std@@PEAX@1@QEAU21@$$QEAV?$basic_string@DU?$char_traits@D@std@@V?$allocator@D@2@@1@@Z
??$_Try_emplace@AEB_K$$V@?$map@_KUcache_state@binlog_cache_data@@U?$less@_K@std@@V?$allocator@U?$pair@$$CB_KUcache_state@binlog_cache_data@@@std@@@4@@std@@AEAA?AU?$pair@PEAU?$_Tree_node@U?$pair@$$CB_KUcache_state@binlog_cache_data@@@std@@PEAX@std@@_N@1@AEB_K@Z
??$_Find@_K@?$_Tree@V?$_Tmap_traits@_KUcache_state@binlog_cache_data@@U?$less@_K@std@@V?$allocator@U?$pair@$$CB_KUcache_state@binlog_cache_data@@@std@@@4@$0A@@std@@@std@@AEBAPEAU?$_Tree_node@U?$pair@$$CB_KUcache_state@binlog_cache_data@@@std@@PEAX@1@AEB_K@Z
??$_Erase_tree@V?$allocator@U?$_Tree_node@U?$pair@$$CB_KUcache_state@binlog_cache_data@@@std@@PEAX@std@@@std@@@?$_Tree_val@U?$_Tree_simple_types@U?$pair@$$CB_KUcache_state@binlog_cache_data@@@std@@@std@@@std@@QEAAXAEAV?$allocator@U?$_Tree_node@U?$pair@$$CB_KUcache_state@binlog_cache_data@@@std@@PEAX@std@@@1@PEAU?$_Tree_node@U?$pair@$$CB_KUcache_state@binlog_cache_data@@@std@@PEAX@1@@Z
??0?$_Container_proxy_ptr12@V?$allocator@U_Container_proxy@std@@@std@@@std@@QEAA@AEAV?$allocator@U_Container_proxy@std@@@1@AEAU_Container_base12@1@@Z
??1?$_Container_proxy_ptr12@V?$allocator@U_Container_proxy@std@@@std@@@std@@QEAA@XZ
??$_Alloc_proxy@V?$allocator@U_Container_proxy@std@@@std@@@_Container_base12@std@@QEAAX$$QEAV?$allocator@U_Container_proxy@std@@@1@@Z
??$_Construct_in_place@U_Container_proxy@std@@PEAU_Container_base12@2@@std@@YAXAEAU_Container_proxy@0@$$QEAPEAU_Container_base12@0@@Z
??$_Construct_in_place@PEAU?$_List_node@V?$basic_string@DU?$char_traits@D@std@@V?$allocator@D@2@@std@@PEAX@std@@AEAPEAU12@@std@@YAXAEAPEAU?$_List_node@V?$basic_string@DU?$char_traits@D@std@@V?$allocator@D@2@@std@@PEAX@0@0@Z
??$_Freenode@V?$allocator@U?$_List_node@V?$basic_string@DU?$char_traits@D@std@@V?$allocator@D@2@@std@@PEAX@std@@@std@@@?$_List_node@V?$basic_string@DU?$char_traits@D@std@@V?$allocator@D@2@@std@@PEAX@std@@SAXAEAV?$allocator@U?$_List_node@V?$basic_string@DU?$char_traits@D@std@@V?$allocator@D@2@@std@@PEAX@std@@@1@PEAU01@@Z
??$_Destroy_in_place@PEAD@std@@YAXAEAPEAD@Z
??$_Reallocate_for@V<lambda_66f57f934f28d61049862f64df852ff0>@@PEBD@?$basic_string@DU?$char_traits@D@std@@V?$allocator@D@2@@std@@AEAAAEAV01@_KV<lambda_66f57f934f28d61049862f64df852ff0>@@PEBD@Z
??$_Construct_in_place@PEADAEBQEAD@std@@YAXAEAPEADAEBQEAD@Z
??$_Buyheadnode@V?$allocator@U?$_Tree_node@U?$pair@$$CB_KUcache_state@binlog_cache_data@@@std@@PEAX@std@@@std@@@?$_Tree_node@U?$pair@$$CB_KUcache_state@binlog_cache_data@@@std@@PEAX@std@@SAPEAU01@AEAV?$allocator@U?$_Tree_node@U?$pair@$$CB_KUcache_state@binlog_cache_data@@@std@@PEAX@std@@@1@@Z
??$_Buyheadnode@V?$allocator@U?$_Tree_node@U?$pair@$$CB_K_J@std@@PEAX@std@@@std@@@?$_Tree_node@U?$pair@$$CB_K_J@std@@PEAX@std@@SAPEAU01@AEAV?$allocator@U?$_Tree_node@U?$pair@$$CB_K_J@std@@PEAX@std@@@1@@Z
??0_Sentry_base@?$basic_ostream@DU?$char_traits@D@std@@@std@@QEAA@AEAV12@@Z
??1_Sentry_base@?$basic_ostream@DU?$char_traits@D@std@@@std@@QEAA@XZ
??0sentry@?$basic_ostream@DU?$char_traits@D@std@@@std@@QEAA@AEAV12@@Z
??1sentry@?$basic_ostream@DU?$char_traits@D@std@@@std@@QEAA@XZ
??$_Deallocate_plain@V?$allocator@U_Container_proxy@std@@@std@@@std@@YAXAEAV?$allocator@U_Container_proxy@std@@@0@QEAU_Container_proxy@0@@Z
?_Allocate@?$_Alloc_construct_ptr@V?$allocator@U?$_List_node@V?$basic_string@DU?$char_traits@D@std@@V?$allocator@D@2@@std@@PEAX@std@@@std@@@std@@QEAAXXZ
??1?$_Alloc_construct_ptr@V?$allocator@U?$_List_node@V?$basic_string@DU?$char_traits@D@std@@V?$allocator@D@2@@std@@PEAX@std@@@std@@@std@@QEAA@XZ
??1?$_List_node_emplace_op2@V?$allocator@U?$_List_node@V?$basic_string@DU?$char_traits@D@std@@V?$allocator@D@2@@std@@PEAX@std@@@std@@@std@@QEAA@XZ
?_Transfer_before@?$_List_node_emplace_op2@V?$allocator@U?$_List_node@V?$basic_string@DU?$char_traits@D@std@@V?$allocator@D@2@@std@@PEAX@std@@@std@@@std@@QEAAPEAU?$_List_node@V?$basic_string@DU?$char_traits@D@std@@V?$allocator@D@2@@std@@PEAX@2@QEAU32@@Z
??$?0V?$basic_string@DU?$char_traits@D@std@@V?$allocator@D@2@@std@@@?$_List_node_emplace_op2@V?$allocator@U?$_List_node@V?$basic_string@DU?$char_traits@D@std@@V?$allocator@D@2@@std@@PEAX@std@@@std@@@std@@QEAA@AEAV?$allocator@U?$_List_node@V?$basic_string@DU?$char_traits@D@std@@V?$allocator@D@2@@std@@PEAX@std@@@1@$$QEAV?$basic_string@DU?$char_traits@D@std@@V?$allocator@D@2@@1@@Z
??$_Find_lower_bound@_K@?$_Tree@V?$_Tmap_traits@_KUcache_state@binlog_cache_data@@U?$less@_K@std@@V?$allocator@U?$pair@$$CB_KUcache_state@binlog_cache_data@@@std@@@4@$0A@@std@@@std@@IEBA?AU?$_Tree_find_result@PEAU?$_Tree_node@U?$pair@$$CB_KUcache_state@binlog_cache_data@@@std@@PEAX@std@@@1@AEB_K@Z
?_Allocate@?$_Alloc_construct_ptr@V?$allocator@U?$_Tree_node@U?$pair@$$CB_KUcache_state@binlog_cache_data@@@std@@PEAX@std@@@std@@@std@@QEAAXXZ
??1?$_Alloc_construct_ptr@V?$allocator@U?$_Tree_node@U?$pair@$$CB_KUcache_state@binlog_cache_data@@@std@@PEAX@std@@@std@@@std@@QEAA@XZ
??1?$_Tree_temp_node_alloc@V?$allocator@U?$_Tree_node@U?$pair@$$CB_KUcache_state@binlog_cache_data@@@std@@PEAX@std@@@std@@@std@@QEAA@XZ
??1?$_Tree_temp_node@V?$allocator@U?$_Tree_node@U?$pair@$$CB_KUcache_state@binlog_cache_data@@@std@@PEAX@std@@@std@@@std@@QEAA@XZ
??$?0AEBUpiecewise_construct_t@std@@V?$tuple@AEB_K@1@V?$tuple@$$V@1@@?$_Tree_temp_node@V?$allocator@U?$_Tree_node@U?$pair@$$CB_KUcache_state@binlog_cache_data@@@std@@PEAX@std@@@std@@@std@@QEAA@AEAV?$allocator@U?$_Tree_node@U?$pair@$$CB_KUcache_state@binlog_cache_data@@@std@@PEAX@std@@@1@PEAU?$_Tree_node@U?$pair@$$CB_KUcache_state@binlog_cache_data@@@std@@PEAX@1@AEBUpiecewise_construct_t@1@$$QEAV?$tuple@AEB_K@1@$$QEAV?$tuple@$$V@1@@Z
??$_Freenode0@V?$allocator@U?$_Tree_node@U?$pair@$$CB_KUcache_state@binlog_cache_data@@@std@@PEAX@std@@@std@@@?$_Tree_node@U?$pair@$$CB_KUcache_state@binlog_cache_data@@@std@@PEAX@std@@SAXAEAV?$allocator@U?$_Tree_node@U?$pair@$$CB_KUcache_state@binlog_cache_data@@@std@@PEAX@std@@@1@PEAU01@@Z
??$_Destroy_in_place@PEAU?$_List_node@V?$basic_string@DU?$char_traits@D@std@@V?$allocator@D@2@@std@@PEAX@std@@@std@@YAXAEAPEAU?$_List_node@V?$basic_string@DU?$char_traits@D@std@@V?$allocator@D@2@@std@@PEAX@0@@Z
??$_Construct_in_place@PEAU?$_Tree_node@U?$pair@$$CB_KUcache_state@binlog_cache_data@@@std@@PEAX@std@@AEBQEAU12@@std@@YAXAEAPEAU?$_Tree_node@U?$pair@$$CB_KUcache_state@binlog_cache_data@@@std@@PEAX@0@AEBQEAU10@@Z
??$_Construct_in_place@PEAU?$_Tree_node@U?$pair@$$CB_K_J@std@@PEAX@std@@AEBQEAU12@@std@@YAXAEAPEAU?$_Tree_node@U?$pair@$$CB_K_J@std@@PEAX@0@AEBQEAU10@@Z
??$_Destroy_in_place@PEAU?$_Tree_node@U?$pair@$$CB_KUcache_state@binlog_cache_data@@@std@@PEAX@std@@@std@@YAXAEAPEAU?$_Tree_node@U?$pair@$$CB_KUcache_state@binlog_cache_data@@@std@@PEAX@0@@Z
??$_Construct_in_place@PEAU?$_List_node@V?$basic_string@DU?$char_traits@D@std@@V?$allocator@D@2@@std@@PEAX@std@@AEBQEAU12@@std@@YAXAEAPEAU?$_List_node@V?$basic_string@DU?$char_traits@D@std@@V?$allocator@D@2@@std@@PEAX@0@AEBQEAU10@@Z
??$_Find_unchecked1@V?$_List_unchecked_iterator@V?$_List_val@U?$_List_simple_types@V?$basic_string@DU?$char_traits@D@std@@V?$allocator@D@2@@std@@@std@@@std@@@std@@V?$basic_string@DU?$char_traits@D@std@@V?$allocator@D@2@@2@@std@@YA?AV?$_List_unchecked_iterator@V?$_List_val@U?$_List_simple_types@V?$basic_string@DU?$char_traits@D@std@@V?$allocator@D@2@@std@@@std@@@std@@@0@V10@V10@AEBV?$basic_string@DU?$char_traits@D@std@@V?$allocator@D@2@@0@U?$integral_constant@_N$0A@@0@@Z
??$construct@U?$pair@$$CB_KUcache_state@binlog_cache_data@@@std@@AEBUpiecewise_construct_t@2@V?$tuple@AEB_K@2@V?$tuple@$$V@2@@?$_Default_allocator_traits@V?$allocator@U?$_Tree_node@U?$pair@$$CB_KUcache_state@binlog_cache_data@@@std@@PEAX@std@@@std@@@std@@SAXAEAV?$allocator@U?$_Tree_node@U?$pair@$$CB_KUcache_state@binlog_cache_data@@@std@@PEAX@std@@@1@QEAU?$pair@$$CB_KUcache_state@binlog_cache_data@@@1@AEBUpiecewise_construct_t@1@$$QEAV?$tuple@AEB_K@1@$$QEAV?$tuple@$$V@1@@Z
??$_Construct_in_place@PEAU?$_Tree_node@U?$pair@$$CB_KUcache_state@binlog_cache_data@@@std@@PEAX@std@@AEAPEAU12@@std@@YAXAEAPEAU?$_Tree_node@U?$pair@$$CB_KUcache_state@binlog_cache_data@@@std@@PEAX@0@0@Z
??$?8DU?$char_traits@D@std@@V?$allocator@D@1@@std@@YA_NAEBV?$basic_string@DU?$char_traits@D@std@@V?$allocator@D@2@@0@0@Z
?_OptionsStorage@?1??__local_stdio_printf_options@@9@4_KA DATA
?mysql_bin_log@@3VMYSQL_BIN_LOG@@A DATA
??_8Rows_query_event@binary_log@@7B@ DATA
??_8Ignorable_log_event@@7B@ DATA
??_8Rows_query_log_event@@7BIgnorable_log_event@@@ DATA
??_8Rows_query_log_event@@7BRows_query_event@binary_log@@@ DATA
??_8?$basic_ostringstream@DU?$char_traits@D@std@@V?$allocator@D@2@@std@@7B@ DATA
key_memory_log_event_old DATA
??A?$vector@EV?$allocator@E@std@@@std@@QEBAAEBE_K@Z
?ha_index_or_rnd_end@handler@@QEAAHXZ
?is_null_in_record@Field@@QEBA_NPEBE@Z
?maybe_null@Field@@QEBA_NXZ
?set_stmt_row_injection@Query_tables_list@@QEAAXXZ
?show_system_thread@@YAPEBDW4enum_thread_type@@@Z
?get_protocol_classic@THD@@QEBAPEAVProtocol_classic@@XZ
?clear_current_stmt_binlog_format_row@THD@@QEAAXXZ
?reset_current_stmt_binlog_format_row@THD@@QEAAXXZ
??1Log_event@@UEAA@XZ
??1Old_rows_log_event@@UEAA@XZ
?pack_info@Old_rows_log_event@@UEAAHPEAVProtocol@@@Z
?get_data_size@Old_rows_log_event@@UEAA_KXZ
?write_data_header@Old_rows_log_event@@UEAA_NPEAUst_io_cache@@@Z
?write_data_body@Old_rows_log_event@@UEAA_NPEAUst_io_cache@@@Z
?get_db@Old_rows_log_event@@UEAAPEBDXZ
?is_valid@Old_rows_log_event@@UEBA_NXZ
??0Old_rows_log_event@@IEAA@PEAVTHD@@PEAUTABLE@@KPEBUst_bitmap@@_N@Z
??0Old_rows_log_event@@IEAA@PEBDIW4Log_event_type@binary_log@@PEBVFormat_description_event@2@@Z
?do_add_row_data@Old_rows_log_event@@MEAAHPEAE_K@Z
?find_row@Old_rows_log_event@@IEAAHQEBVRelay_log_info@@@Z
?write_row@Old_rows_log_event@@IEAAHQEBVRelay_log_info@@_N@Z
?unpack_current_row@Old_rows_log_event@@IEAAHQEBVRelay_log_info@@@Z
?do_apply_event@Old_rows_log_event@@EEAAHPEBVRelay_log_info@@@Z
?do_update_pos@Old_rows_log_event@@EEAAHPEAVRelay_log_info@@@Z
?do_shall_skip@Old_rows_log_event@@EEAA?AW4enum_skip_reason@Log_event@@PEAVRelay_log_info@@@Z
?do_apply_event@Old_rows_log_event@@IEAAHPEAV1@PEBVRelay_log_info@@@Z
??0Write_rows_log_event_old@@QEAA@PEAVTHD@@PEAUTABLE@@KPEBUst_bitmap@@_N@Z
??0Write_rows_log_event_old@@QEAA@PEBDIPEBVFormat_description_event@binary_log@@@Z
?do_before_row_operations@Write_rows_log_event_old@@EEAAHQEBVSlave_reporting_capability@@@Z
?do_after_row_operations@Write_rows_log_event_old@@EEAAHQEBVSlave_reporting_capability@@H@Z
?do_exec_row@Write_rows_log_event_old@@EEAAHQEBVRelay_log_info@@@Z
?do_apply_event@Write_rows_log_event_old@@EEAAHPEBVRelay_log_info@@@Z
?do_before_row_operations@Write_rows_log_event_old@@EEAAHPEAUTABLE@@@Z
?do_after_row_operations@Write_rows_log_event_old@@EEAAHPEAUTABLE@@H@Z
?do_prepare_row@Write_rows_log_event_old@@EEAAHPEAVTHD@@PEBVRelay_log_info@@PEAUTABLE@@PEBEPEAPEBE@Z
?do_exec_row@Write_rows_log_event_old@@EEAAHPEAUTABLE@@@Z
??0Update_rows_log_event_old@@QEAA@PEAVTHD@@PEAUTABLE@@KPEBUst_bitmap@@_N@Z
??0Update_rows_log_event_old@@QEAA@PEBDIPEBVFormat_description_event@binary_log@@@Z
?do_before_row_operations@Update_rows_log_event_old@@MEAAHQEBVSlave_reporting_capability@@@Z
?do_after_row_operations@Update_rows_log_event_old@@MEAAHQEBVSlave_reporting_capability@@H@Z
?do_exec_row@Update_rows_log_event_old@@MEAAHQEBVRelay_log_info@@@Z
?do_apply_event@Update_rows_log_event_old@@EEAAHPEBVRelay_log_info@@@Z
?do_before_row_operations@Update_rows_log_event_old@@EEAAHPEAUTABLE@@@Z
?do_after_row_operations@Update_rows_log_event_old@@EEAAHPEAUTABLE@@H@Z
?do_prepare_row@Update_rows_log_event_old@@EEAAHPEAVTHD@@PEBVRelay_log_info@@PEAUTABLE@@PEBEPEAPEBE@Z
?do_exec_row@Update_rows_log_event_old@@EEAAHPEAUTABLE@@@Z
??0Delete_rows_log_event_old@@QEAA@PEAVTHD@@PEAUTABLE@@KPEBUst_bitmap@@_N@Z
??0Delete_rows_log_event_old@@QEAA@PEBDIPEBVFormat_description_event@binary_log@@@Z
?do_before_row_operations@Delete_rows_log_event_old@@MEAAHQEBVSlave_reporting_capability@@@Z
?do_after_row_operations@Delete_rows_log_event_old@@MEAAHQEBVSlave_reporting_capability@@H@Z
?do_exec_row@Delete_rows_log_event_old@@MEAAHQEBVRelay_log_info@@@Z
?do_apply_event@Delete_rows_log_event_old@@EEAAHPEBVRelay_log_info@@@Z
?do_before_row_operations@Delete_rows_log_event_old@@EEAAHPEAUTABLE@@@Z
?do_after_row_operations@Delete_rows_log_event_old@@EEAAHPEAUTABLE@@H@Z
?do_prepare_row@Delete_rows_log_event_old@@EEAAHPEAVTHD@@PEBVRelay_log_info@@PEAUTABLE@@PEBEPEAPEBE@Z
?do_exec_row@Delete_rows_log_event_old@@EEAAHPEAUTABLE@@@Z
?buf@?3??show_system_thread@@YAPEBDW4enum_thread_type@@@Z@4PADA DATA
?binlog_checksum_typelib@@3Ust_typelib@@A DATA
?SET_STRING_PREFIX@Gtid_log_event@@2PEBDEB DATA
?binlog_checksum_type_names@@3PAPEBDA DATA
?binlog_checksum_type_length@@3PAIA DATA
?key_memory_log_event@@3IA DATA
?key_memory_Incident_log_event_message@@3IA DATA
?key_memory_Rows_query_log_event_rows_query@@3IA DATA
??0?$basic_string@DU?$char_traits@D@std@@V?$allocator@D@2@@std@@QEAA@AEBV01@@Z
??0?$basic_string@DU?$char_traits@D@std@@V?$allocator@D@2@@std@@QEAA@XZ
??0?$basic_string@DU?$char_traits@D@std@@V?$allocator@D@2@@std@@QEAA@QEBD_K@Z
?_Move_assign@?$basic_string@DU?$char_traits@D@std@@V?$allocator@D@2@@std@@AEAAXAEAV12@U_Equal_allocators@2@@Z
?_Construct_lv_contents@?$basic_string@DU?$char_traits@D@std@@V?$allocator@D@2@@std@@AEAAXAEBV12@@Z
?_Copy_assign@?$basic_string@DU?$char_traits@D@std@@V?$allocator@D@2@@std@@AEAAXAEBV12@U?$integral_constant@_N$0A@@2@@Z
?compare@?$basic_string@DU?$char_traits@D@std@@V?$allocator@D@2@@std@@QEBAHAEBV12@@Z
??0Log_event_header@binary_log@@QEAA@W4Log_event_type@1@@Z
??1Rotate_event@binary_log@@UEAA@XZ
??1Start_event_v3@binary_log@@UEAA@XZ
?deallocate@?$allocator@E@std@@QEAAXQEAE_K@Z
??1?$vector@EV?$allocator@E@std@@@std@@QEAA@XZ
??A?$vector@EV?$allocator@E@std@@@std@@QEAAAEAE_K@Z
?front@?$vector@EV?$allocator@E@std@@@std@@QEAAAEAEXZ
?_Destroy@?$vector@EV?$allocator@E@std@@@std@@AEAAXPEAE0@Z
?_Calculate_growth@?$vector@EV?$allocator@E@std@@@std@@AEBA_K_K@Z
?_Buy_raw@?$vector@EV?$allocator@E@std@@@std@@AEAAX_K@Z
?_Buy_nonzero@?$vector@EV?$allocator@E@std@@@std@@AEAAX_K@Z
?_Change_array@?$vector@EV?$allocator@E@std@@@std@@AEAAXQEAE_K1@Z
?_Tidy@?$vector@EV?$allocator@E@std@@@std@@AEAAXXZ
?_Xlength@?$vector@EV?$allocator@E@std@@@std@@CAXXZ
?_Orphan_range@?$vector@EV?$allocator@E@std@@@std@@AEBAXPEAE0@Z
??1Gtid_event@binary_log@@UEAA@XZ
??1Previous_gtids_event@binary_log@@UEAA@XZ
??0?$list@PEBDV?$allocator@PEBD@std@@@std@@QEAA@XZ
??1?$list@PEBDV?$allocator@PEBD@std@@@std@@QEAA@XZ
?_Tidy@?$list@PEBDV?$allocator@PEBD@std@@@std@@AEAAXXZ
?_Alloc_sentinel_and_proxy@?$list@PEBDV?$allocator@PEBD@std@@@std@@AEAAXXZ
?clear@?$_Tree@V?$_Tmap_traits@V?$basic_string@DU?$char_traits@D@std@@V?$allocator@D@2@@std@@V12@U?$less@V?$basic_string@DU?$char_traits@D@std@@V?$allocator@D@2@@std@@@2@V?$allocator@U?$pair@$$CBV?$basic_string@DU?$char_traits@D@std@@V?$allocator@D@2@@std@@V12@@std@@@2@$0A@@std@@@std@@QEAAXXZ
?_Check_grow_by_1@?$_Tree@V?$_Tmap_traits@V?$basic_string@DU?$char_traits@D@std@@V?$allocator@D@2@@std@@V12@U?$less@V?$basic_string@DU?$char_traits@D@std@@V?$allocator@D@2@@std@@@2@V?$allocator@U?$pair@$$CBV?$basic_string@DU?$char_traits@D@std@@V?$allocator@D@2@@std@@V12@@std@@@2@$0A@@std@@@std@@IEAAXXZ
?_Lrotate@?$_Tree_val@U?$_Tree_simple_types@U?$pair@$$CBV?$basic_string@DU?$char_traits@D@std@@V?$allocator@D@2@@std@@V12@@std@@@std@@@std@@QEAAXPEAU?$_Tree_node@U?$pair@$$CBV?$basic_string@DU?$char_traits@D@std@@V?$allocator@D@2@@std@@V12@@std@@PEAX@2@@Z
?_Rrotate@?$_Tree_val@U?$_Tree_simple_types@U?$pair@$$CBV?$basic_string@DU?$char_traits@D@std@@V?$allocator@D@2@@std@@V12@@std@@@std@@@std@@QEAAXPEAU?$_Tree_node@U?$pair@$$CBV?$basic_string@DU?$char_traits@D@std@@V?$allocator@D@2@@std@@V12@@std@@PEAX@2@@Z
?_Insert_node@?$_Tree_val@U?$_Tree_simple_types@U?$pair@$$CBV?$basic_string@DU?$char_traits@D@std@@V?$allocator@D@2@@std@@V12@@std@@@std@@@std@@QEAAPEAU?$_Tree_node@U?$pair@$$CBV?$basic_string@DU?$char_traits@D@std@@V?$allocator@D@2@@std@@V12@@std@@PEAX@2@U?$_Tree_id@PEAU?$_Tree_node@U?$pair@$$CBV?$basic_string@DU?$char_traits@D@std@@V?$allocator@D@2@@std@@V12@@std@@PEAX@std@@@2@QEAU32@@Z
?_Orphan_ptr@?$_Tree_val@U?$_Tree_simple_types@U?$pair@$$CBV?$basic_string@DU?$char_traits@D@std@@V?$allocator@D@2@@std@@V12@@std@@@std@@@std@@QEAAXQEAU?$_Tree_node@U?$pair@$$CBV?$basic_string@DU?$char_traits@D@std@@V?$allocator@D@2@@std@@V12@@std@@PEAX@2@@Z
??1Heartbeat_event@binary_log@@UEAA@XZ
?get_var_type_string@Intvar_event@binary_log@@QEBA?AV?$basic_string@DU?$char_traits@D@std@@V?$allocator@D@2@@std@@XZ
?data_size@sql_ex_data_info@binary_log@@QEAAHXZ
?new_format@sql_ex_data_info@binary_log@@QEAA_NXZ
??_DExecute_load_query_event@binary_log@@QEAAXXZ
??0Load_event@binary_log@@IEAA@W4Log_event_type@1@@Z
??1Load_event@binary_log@@UEAA@XZ
??1Create_file_event@binary_log@@UEAA@XZ
??_DCreate_file_event@binary_log@@QEAAXXZ
??1Delete_file_event@binary_log@@UEAA@XZ
??1Execute_load_event@binary_log@@UEAA@XZ
??1Append_block_event@binary_log@@UEAA@XZ
??0Begin_load_query_event@binary_log@@IEAA@XZ
??1Begin_load_query_event@binary_log@@UEAA@XZ
??0Table_map_event@binary_log@@QEAA@AEBVTable_id@@KPEBD_K12@Z
??0Rows_event@binary_log@@QEAA@W4Log_event_type@1@@Z
??0Write_rows_event@binary_log@@QEAA@PEBDIPEBVFormat_description_event@1@@Z
??0Update_rows_event@binary_log@@QEAA@PEBDIPEBVFormat_description_event@1@@Z
??1Update_rows_event@binary_log@@UEAA@XZ
??0Delete_rows_event@binary_log@@QEAA@PEBDIPEBVFormat_description_event@1@@Z
?append@Discrete_intervals_list@@AEAA_NPEAVDiscrete_interval@@@Z
?empty@Discrete_intervals_list@@QEAAXXZ
?append@Discrete_intervals_list@@QEAA_N_K00@Z
?set@Simple_cstring@@IEAAXPEBD_K@Z
?c_ptr_quick@String@@QEAAPEADXZ
??1my_decimal@@QEAA@XZ
?sanity_check@my_decimal@@QEBAXXZ
?cleanup@Sql_cmd@@UEAAXPEAVTHD@@@Z
??0st_ha_create_information@@QEAA@XZ
?sidno_to_sid@Sid_map@@QEBAAEBUUuid@binary_log@@H_N@Z
?set@Gtid_specification@@QEAAXH_J@Z
?reset@sql_digest_state@@QEAAXPEAEI@Z
?contextualize@Parse_tree_node@@UEAA_NPEAUParse_context@@@Z
?contextualize_@Parse_tree_node@@UEAA_NPEAUParse_context@@@Z
?is_expensive_processor@Item@@EEAA_NPEAE@Z
??3Item@@SAXPEAX_K@Z
?contextualize@Item@@EEAA_NPEAUParse_context@@@Z
?contextualize_@Item@@EEAA_NPEAUParse_context@@@Z
?fix_after_pullout@Item@@UEAAXPEAVst_select_lex@@0@Z
?save_org_in_field@Item@@UEAAXPEAVField@@@Z
?save_safe_in_field@Item@@UEAA?AW4type_conversion_status@@PEAVField@@@Z
?result_type@Item@@UEBA?AW4Item_result@@XZ
?numeric_context_result_type@Item@@UEBA?AW4Item_result@@XZ
?cast_to_int_type@Item@@UEBA?AW4Item_result@@XZ
?get_monotonicity_info@Item@@UEBA?AW4monotonicity_info@@XZ
?val_int_endpoint@Item@@UEAA_J_NPEA_N@Z
?val_nodeset@Item@@UEAAPEAVString@@PEAV2@@Z
?val_json@Item@@UEAA_NPEAVJson_wrapper@@@Z
?get_filtering_effect@Item@@UEAAM_K0PEBUst_bitmap@@N@Z
?get_tmp_table_field@Item@@UEAAPEAVField@@XZ
?tmp_table_field@Item@@UEAAPEAVField@@PEAUTABLE@@@Z
?full_name@Item@@UEBAPEBDXZ
?val_result@Item@@UEAANXZ
?val_int_result@Item@@UEAA_JXZ
?val_time_temporal_result@Item@@UEAA_JXZ
?val_date_temporal_result@Item@@UEAA_JXZ
?str_result@Item@@UEAAPEAVString@@PEAV2@@Z
?val_decimal_result@Item@@UEAAPEAVmy_decimal@@PEAV2@@Z
?val_bool_result@Item@@UEAA_NXZ
?is_null_result@Item@@UEAA_NXZ
?used_tables@Item@@UEBA_KXZ
?not_null_tables@Item@@UEBA_KXZ
?basic_const_item@Item@@UEBA_NXZ
?clone_item@Item@@UEAAPEAV1@XZ
?eq_cmp_result@Item@@UEBA?AW4cond_result@1@XZ
?const_item@Item@@UEBA_NXZ
?const_during_execution@Item@@UEBA_NXZ
?print@Item@@UEAAXPEAVString@@W4enum_query_type@@@Z
?update_used_tables@Item@@UEAAXXZ
?split_sum_func@Item@@UEAAXPEAVTHD@@V?$Bounds_checked_array@PEAVItem@@@@AEAV?$List@VItem@@@@@Z
?get_date_result@Item@@UEAA_NPEAUst_mysql_time@@I@Z
?is_null@Item@@UEAA_NXZ
?update_null_value@Item@@UEAAXXZ
?top_level_item@Item@@UEAAXXZ
?set_result_field@Item@@UEAAXPEAVField@@@Z
?is_result_field@Item@@UEAA_NXZ
?is_bool_func@Item@@UEAA_NXZ
?save_in_result_field@Item@@UEAAX_N@Z
?no_rows_in_result@Item@@UEAAXXZ
?copy_or_same@Item@@UEAAPEAV1@PEAVTHD@@@Z
?copy_andor_structure@Item@@UEAAPEAV1@PEAVTHD@@@Z
?real_item@Item@@UEAAPEAV1@XZ
?substitutional_item@Item@@UEAAPEAV1@XZ
?set_runtime_created@Item@@UEAAXXZ
?get_tmp_table_item@Item@@UEAAPEAV1@PEAVTHD@@@Z
?compare_collation@Item@@UEAAPEBUcharset_info_st@@XZ
?charset_for_protocol@Item@@UEBAPEBUcharset_info_st@@XZ
?walk@Item@@UEAA_NP81@EAA_NPEAE@ZW4enum_walk@1@0@Z
?compile@Item@@UEAAPEAV1@P81@EAA_NPEAPEAE@Z0P81@EAAPEAV1@PEAE@Z2@Z
?traverse_cond@Item@@UEAAXP6AXPEBV1@PEAX@Z1W4traverse_order@1@@Z
?intro_version@Item@@UEAA_NPEAE@Z
?remove_fixed@Item@@UEAA_NPEAE@Z
?collect_item_field_processor@Item@@UEAA_NPEAE@Z
?add_field_to_set_processor@Item@@UEAA_NPEAE@Z
?add_field_to_cond_set_processor@Item@@UEAA_NPEAE@Z
?remove_column_from_bitmap@Item@@UEAA_NPEAE@Z
?find_item_in_field_list_processor@Item@@UEAA_NPEAE@Z
?change_context_processor@Item@@UEAA_NPEAE@Z
?reset_query_id_processor@Item@@UEAA_NPEAE@Z
?find_item_processor@Item@@UEAA_NPEAE@Z
?mark_field_in_map@Item@@UEAA_NPEAE@Z
?used_tables_for_level@Item@@UEAA_NPEAE@Z
?check_column_privileges@Item@@UEAA_NPEAE@Z
?inform_item_in_cond_of_tab@Item@@UEAA_NPEAE@Z
?clean_up_after_removal@Item@@UEAA_NPEAE@Z
?propagate_derived_used@Item@@UEAA_NPEAE@Z
?aggregate_check_distinct@Item@@UEAA_NPEAE@Z
?aggregate_check_group@Item@@UEAA_NPEAE@Z
?is_strong_side_column_not_in_fd@Item@@UEAA_NPEAE@Z
?is_column_not_in_fd@Item@@UEAA_NPEAE@Z
?local_column@Item@@UEBA?AVBool3@@PEBVst_select_lex@@@Z
?item_field_by_name_analyzer@Item@@UEAA_NPEAPEAE@Z
?item_field_by_name_transformer@Item@@UEAAPEAV1@PEAE@Z
?equality_substitution_analyzer@Item@@UEAA_NPEAPEAE@Z
?equality_substitution_transformer@Item@@UEAAPEAV1@PEAE@Z
?check_partition_func_processor@Item@@UEAA_NPEAE@Z
?subst_argument_checker@Item@@UEAA_NPEAPEAE@Z
?explain_subquery_checker@Item@@UEAA_NPEAPEAE@Z
?explain_subquery_propagator@Item@@UEAAPEAV1@PEAE@Z
?equal_fields_propagator@Item@@UEAAPEAV1@PEAE@Z
?set_no_const_sub@Item@@UEAA_NPEAE@Z
?replace_equal_field@Item@@UEAAPEAV1@PEAE@Z
?check_valid_arguments_processor@Item@@UEAA_NPEAE@Z
?find_function_processor@Item@@UEAA_NPEAE@Z
?check_gcol_func_processor@Item@@UEAA_NPEAE@Z
?check_gcol_depend_default_processor@Item@@UEAA_NPEAE@Z
?update_indexed_column_map@Item@@UEAA_NPEAE@Z
?this_item@Item@@UEAAPEAV1@XZ
?this_item@Item@@UEBAPEBV1@XZ
?this_item_addr@Item@@UEAAPEAPEAV1@PEAVTHD@@PEAPEAV1@@Z
?cols@Item@@UEAAIXZ
?element_index@Item@@UEAAPEAV1@I@Z
?addr@Item@@UEAAPEAPEAV1@I@Z
?null_inside@Item@@UEAA_NXZ
?bring_value@Item@@UEAAXXZ
?field_for_view_update@Item@@UEAAPEAVItem_field@@XZ
?neg_transformer@Item@@UEAAPEAV1@PEAVTHD@@@Z
?update_value_transformer@Item@@UEAAPEAV1@PEAE@Z
?is_splocal@Item@@UEAA_NXZ
?get_settable_routine_parameter@Item@@UEAAPEAVSettable_routine_parameter@@XZ
?get_geometry_type@Item@@UEBA?AW4geometry_type@Field@@XZ
?is_expensive@Item@@UEAA_NXZ
?is_outer_field@Item@@UEBA_NXZ
?has_subquery@Item@@UEBA_NXZ
?has_stored_program@Item@@UEBA_NXZ
?created_by_in2exists@Item@@UEBA_NXZ
?gc_subst_analyzer@Item@@UEAA_NPEAPEAE@Z
?gc_subst_transformer@Item@@UEAAPEAV1@PEAE@Z
?repoint_const_outer_ref@Item@@UEAA_NPEAE@Z
?subq_opt_away_processor@Item@@EEAA_NPEAE@Z
??_9Item@@$BBI@AA
?used_tables@Item_basic_constant@@UEBA_KXZ
?check_gcol_func_processor@Item_basic_constant@@UEAA_NPEAE@Z
?cleanup@Item_basic_constant@@UEAAXXZ
??1Item_basic_constant@@UEAA@XZ
??0Item_num@@QEAA@XZ
?check_partition_func_processor@Item_num@@UEAA_NPEAE@Z
??1Item_num@@UEAA@XZ
?init@Item_null@@AEAAXXZ
??0Item_null@@QEAA@XZ
?type@Item_null@@UEBA?AW4Type@Item@@XZ
?val_time_temporal@Item_null@@UEAA_JXZ
?val_date_temporal@Item_null@@UEAA_JXZ
?get_date@Item_null@@UEAA_NPEAUst_mysql_time@@I@Z
?get_time@Item_null@@UEAA_NPEAUst_mysql_time@@@Z
?result_type@Item_null@@UEBA?AW4Item_result@@XZ
?field_type@Item_null@@UEBA?AW4enum_field_types@@XZ
?basic_const_item@Item_null@@UEBA_NXZ
?clone_item@Item_null@@UEAAPEAVItem@@XZ
?is_null@Item_null@@UEAA_NXZ
?print@Item_null@@UEAAXPEAVString@@W4enum_query_type@@@Z
?check_partition_func_processor@Item_null@@UEAA_NPEAE@Z
??0Item_int@@QEAA@AEBVName_string@@_JI@Z
?type@Item_int@@UEBA?AW4Type@Item@@XZ
?result_type@Item_int@@UEBA?AW4Item_result@@XZ
?field_type@Item_int@@UEBA?AW4enum_field_types@@XZ
?val_int@Item_int@@UEAA_JXZ
?val_real@Item_int@@UEAANXZ
?get_date@Item_int@@UEAA_NPEAUst_mysql_time@@I@Z
?get_time@Item_int@@UEAA_NPEAUst_mysql_time@@@Z
?basic_const_item@Item_int@@UEBA_NXZ
?clone_item@Item_int@@UEAAPEAVItem@@XZ
?neg@Item_int@@UEAAPEAVItem_num@@XZ
?decimal_precision@Item_int@@UEBAIXZ
?check_partition_func_processor@Item_int@@UEAA_NPEAE@Z
?check_gcol_func_processor@Item_int@@UEAA_NPEAE@Z
?type@Item_float@@UEBA?AW4Type@Item@@XZ
?field_type@Item_float@@UEBA?AW4enum_field_types@@XZ
?val_real@Item_float@@UEAANXZ
?val_int@Item_float@@UEAA_JXZ
?get_date@Item_float@@UEAA_NPEAUst_mysql_time@@I@Z
?get_time@Item_float@@UEAA_NPEAUst_mysql_time@@@Z
?basic_const_item@Item_float@@UEBA_NXZ
?clone_item@Item_float@@UEAAPEAVItem@@XZ
?neg@Item_float@@UEAAPEAVItem_num@@XZ
?init@Item_string@@IEAAXPEBD_KPEBUcharset_info_st@@W4Derivation@@I@Z
??0Item_string@@QEAA@VName_string@@PEBD_KPEBUcharset_info_st@@W4Derivation@@I@Z
?type@Item_string@@UEBA?AW4Type@Item@@XZ
?val_str@Item_string@@UEAAPEAVString@@PEAV2@@Z
?get_date@Item_string@@UEAA_NPEAUst_mysql_time@@I@Z
?get_time@Item_string@@UEAA_NPEAUst_mysql_time@@@Z
?result_type@Item_string@@UEBA?AW4Item_result@@XZ
?field_type@Item_string@@UEBA?AW4enum_field_types@@XZ
?basic_const_item@Item_string@@UEBA_NXZ
?clone_item@Item_string@@UEAAPEAVItem@@XZ
?check_partition_func_processor@Item_string@@UEAA_NPEAE@Z
??0Item_empty_string@@QEAA@PEBD_KPEBUcharset_info_st@@@Z
?field_type@Item_return_int@@UEBA?AW4enum_field_types@@XZ
?get_tmp_table_field@Item_result_field@@UEAAPEAVField@@XZ
?tmp_table_field@Item_result_field@@UEAAPEAVField@@PEAUTABLE@@@Z
?used_tables@Item_result_field@@UEBA_KXZ
?set_result_field@Item_result_field@@UEAAXPEAVField@@@Z
?is_result_field@Item_result_field@@UEAA_NXZ
?save_in_result_field@Item_result_field@@UEAAX_N@Z
?check_gcol_func_processor@Item_result_field@@UEAA_NPEAE@Z
?sql_command_code@Sql_cmd_xa_prepare@@UEBA?AW4enum_sql_command@@XZ
?sql_command_code@Sql_cmd_xa_commit@@UEBA?AW4enum_sql_command@@XZ
?type@Item_func@@UEBA?AW4Type@Item@@XZ
?functype@Item_func@@UEBA?AW4Functype@1@XZ
??0Item_func@@QEAA@PEAVItem@@@Z
?get_initial_pseudo_tables@Item_func@@UEBA_KXZ
?select_optimize@Item_func@@UEBA?AW4optimize_type@1@XZ
?have_rev_func@Item_func@@UEBA_NXZ
?key_item@Item_func@@UEBAPEAVItem@@XZ
?const_item@Item_func@@UEBA_NXZ
?is_null@Item_func@@UEAA_NXZ
?has_timestamp_args@Item_func@@QEAA_NXZ
?check_valid_arguments_processor@Item_func@@UEAA_NPEAE@Z
?find_function_processor@Item_func@@UEAA_NPEAE@Z
?may_have_named_parameters@Item_func@@MEBA_NXZ
?get_date@Item_var_func@@UEAA_NPEAUst_mysql_time@@I@Z
?get_time@Item_var_func@@UEAA_NPEAUst_mysql_time@@@Z
?check_gcol_func_processor@Item_var_func@@UEAA_NPEAE@Z
??0Item_func_set_user_var@@QEAA@VName_string@@PEAVItem@@_N@Z
?functype@Item_func_set_user_var@@UEBA?AW4Functype@Item_func@@XZ
?result_type@Item_func_set_user_var@@UEBA?AW4Item_result@@XZ
?func_name@Item_func_set_user_var@@UEBAPEBDXZ
?save_org_in_field@Item_func_set_user_var@@UEAAXPEAVField@@@Z
?save_in_field_inner@Item_func_set_user_var@@MEAA?AW4type_conversion_status@@PEAVField@@_N@Z
??1Item_func_set_user_var@@UEAA@XZ
?reset@Yacc_state@@QEAAXXZ
??0Parser_state@@QEAA@XZ
??1Parser_state@@QEAA@XZ
?set_unsafe_rollback_flags@THD_TRANS@Transaction_ctx@@QEAAXI@Z
?add_unsafe_rollback_flags@THD_TRANS@Transaction_ctx@@QEAAXI@Z
?reset_unsafe_rollback_flags@THD_TRANS@Transaction_ctx@@QEAAXXZ
?mark_modified_non_trans_table@THD_TRANS@Transaction_ctx@@QEAAXXZ
?set_db@THD@@QEAA_NAEBUst_mysql_const_lex_string@@@Z
?reset_query_for_display@THD@@QEAAXXZ
?rewritten_query@THD@@QEBAAEBVString@@XZ
?reset_rewritten_query@THD@@QEAAXXZ
?set_query_id@THD@@QEAAX_J@Z
?ignored_error_code@@YAHH@Z
?write_data@sql_ex_info@@QEAA_NPEAUst_io_cache@@@Z
?init@sql_ex_info@@QEAAPEBDPEBD0_N@Z
?write_header_to_memory@Log_event@@IEAAIPEAE@Z
?write_header@Log_event@@IEAA_NPEAUst_io_cache@@_K@Z
?write_footer@Log_event@@IEAA_NPEAUst_io_cache@@@Z
?need_checksum@Log_event@@IEAADXZ
??0Log_event@@QEAA@PEAVLog_event_header@binary_log@@PEAVLog_event_footer@2@W4enum_event_cache_type@0@W4enum_event_logging_type@0@@Z
??0Log_event@@QEAA@PEAVTHD@@GW4enum_event_cache_type@0@W4enum_event_logging_type@0@PEAVLog_event_header@binary_log@@PEAVLog_event_footer@5@@Z
?read_log_event@Log_event@@SAPEAV1@PEAUst_io_cache@@PEAUst_mysql_mutex@@PEBVFormat_description_log_event@@D@Z
?read_log_event@Log_event@@SAHPEAUst_io_cache@@PEAVString@@PEAUst_mysql_mutex@@W4enum_binlog_checksum_alg@binary_log@@PEBDPEA_NPEAD@Z
?init_show_field_list@Log_event@@SAXPEAV?$List@VItem@@@@@Z
?net_send@Log_event@@QEAAHPEAVProtocol@@PEBD_K@Z
?pack_info@Log_event@@UEAAHPEAVProtocol@@@Z
??2Log_event@@SAPEAX_K@Z
?wrapper_my_b_safe_write@Log_event@@QEAA_NPEAUst_io_cache@@PEBE_K@Z
?get_time@Log_event@@QEAA_JXZ
??0Log_event@@QEAA@PEAVLog_event_header@binary_log@@PEAVLog_event_footer@2@@Z
?read_log_event@Log_event@@SAPEAV1@PEBDIPEAPEBDPEBVFormat_description_log_event@@D@Z
?get_type_str@Log_event@@SAPEBDW4Log_event_type@binary_log@@@Z
?get_type_str@Log_event@@QEAAPEBDXZ
?is_mts_sequential_exec@Log_event@@QEAA_N_N@Z
?get_mts_execution_mode@Log_event@@AEAA?AW4enum_mts_event_exec_mode@1@K_N0@Z
?get_slave_worker@Log_event@@AEAAPEAVSlave_worker@@PEAVRelay_log_info@@@Z
?contains_partition_info@Log_event@@QEAA_N_N@Z
?apply_event@Log_event@@QEAAHPEAVRelay_log_info@@@Z
?apply_gtid_event@Log_event@@QEAAHPEAVRelay_log_info@@@Z
?do_apply_event_worker@Log_event@@UEAAHPEAVSlave_worker@@@Z
?do_update_pos@Log_event@@MEAAHPEAVRelay_log_info@@@Z
?do_shall_skip@Log_event@@MEAA?AW4enum_skip_reason@1@PEAVRelay_log_info@@@Z
??0Query_log_event@@QEAA@PEAVTHD@@PEBD_K_N33H3@Z
?attach_temp_tables_worker@Query_log_event@@QEAAXPEAVTHD@@PEBVRelay_log_info@@@Z
?detach_temp_tables_worker@Query_log_event@@QEAAXPEAVTHD@@PEBVRelay_log_info@@@Z
?pack_info@Query_log_event@@UEAAHPEAVProtocol@@@Z
??0Query_log_event@@QEAA@XZ
??0Query_log_event@@QEAA@PEBDIPEBVFormat_description_event@binary_log@@W4Log_event_type@2@@Z
?write@Query_log_event@@UEAA_NPEAUst_io_cache@@@Z
?do_shall_skip@Query_log_event@@UEAA?AW4enum_skip_reason@Log_event@@PEAVRelay_log_info@@@Z
?do_apply_event@Query_log_event@@UEAAHPEBVRelay_log_info@@@Z
?do_update_pos@Query_log_event@@UEAAHPEAVRelay_log_info@@@Z
?do_apply_event@Query_log_event@@QEAAHPEBVRelay_log_info@@PEBD_K@Z
?get_query@Query_log_event@@SA_KPEBD_KPEBVFormat_description_log_event@@PEAPEAD@Z
?get_query_buffer_length@Load_log_event@@QEAAIXZ
?print_query@Load_log_event@@QEAAX_NPEBDPEADPEAPEAD33@Z
??0Load_log_event@@QEAA@PEAVTHD@@PEAVsql_exchange@@PEBD2AEAV?$List@VItem@@@@_NW4enum_duplicates@@44@Z
?set_fields@Load_log_event@@QEAAXPEBDAEAV?$List@VItem@@@@PEAUName_resolution_context@@@Z
?get_db@Load_log_event@@UEAAPEBDXZ
?pack_info@Load_log_event@@UEAAHPEAVProtocol@@@Z
??0Load_log_event@@QEAA@PEBDIPEBVFormat_description_event@binary_log@@@Z
??1Load_log_event@@UEAA@XZ
?write_data_header@Load_log_event@@UEAA_NPEAUst_io_cache@@@Z
?write_data_body@Load_log_event@@UEAA_NPEAUst_io_cache@@@Z
?get_data_size@Load_log_event@@UEAA_KXZ
?do_apply_event@Load_log_event@@UEAAHPEBVRelay_log_info@@@Z
?do_apply_event@Load_log_event@@QEAAHPEAUst_net@@PEBVRelay_log_info@@_N@Z
??0Start_log_event_v3@@QEAA@XZ
?pack_info@Start_log_event_v3@@UEAAHPEAVProtocol@@@Z
??0Start_log_event_v3@@QEAA@PEBDIPEBVFormat_description_event@binary_log@@@Z
?write@Start_log_event_v3@@UEAA_NPEAUst_io_cache@@@Z
?do_apply_event@Start_log_event_v3@@MEAAHPEBVRelay_log_info@@@Z
??0Format_description_log_event@@QEAA@EPEBD@Z
??0Format_description_log_event@@QEAA@PEBDIPEBVFormat_description_event@binary_log@@@Z
?write@Format_description_log_event@@UEAA_NPEAUst_io_cache@@@Z
?header_is_valid@Format_description_log_event@@QEBA_NXZ
?get_data_size@Format_description_log_event@@UEAA_KXZ
?do_apply_event@Format_description_log_event@@MEAAHPEBVRelay_log_info@@@Z
?do_update_pos@Format_description_log_event@@MEAAHPEAVRelay_log_info@@@Z
?do_shall_skip@Format_description_log_event@@MEAA?AW4enum_skip_reason@Log_event@@PEAVRelay_log_info@@@Z
?pack_info@Intvar_log_event@@UEAAHPEAVProtocol@@@Z
??0Intvar_log_event@@QEAA@PEBDPEBVFormat_description_event@binary_log@@@Z
?write@Intvar_log_event@@UEAA_NPEAUst_io_cache@@@Z
?do_apply_event@Intvar_log_event@@EEAAHPEBVRelay_log_info@@@Z
?do_update_pos@Intvar_log_event@@EEAAHPEAVRelay_log_info@@@Z
?do_shall_skip@Intvar_log_event@@EEAA?AW4enum_skip_reason@Log_event@@PEAVRelay_log_info@@@Z
?pack_info@Rand_log_event@@UEAAHPEAVProtocol@@@Z
??0Rand_log_event@@QEAA@PEBDPEBVFormat_description_event@binary_log@@@Z
?write@Rand_log_event@@UEAA_NPEAUst_io_cache@@@Z
?do_apply_event@Rand_log_event@@EEAAHPEBVRelay_log_info@@@Z
?do_update_pos@Rand_log_event@@EEAAHPEAVRelay_log_info@@@Z
?do_shall_skip@Rand_log_event@@EEAA?AW4enum_skip_reason@Log_event@@PEAVRelay_log_info@@@Z
?do_shall_skip@Xid_apply_log_event@@MEAA?AW4enum_skip_reason@Log_event@@PEAVRelay_log_info@@@Z
?do_apply_event@Xid_apply_log_event@@MEAAHPEBVRelay_log_info@@@Z
?do_apply_event_worker@Xid_apply_log_event@@MEAAHPEAVSlave_worker@@@Z
?pack_info@Xid_log_event@@UEAAHPEAVProtocol@@@Z
??0Xid_log_event@@QEAA@PEBDPEBVFormat_description_event@binary_log@@@Z
?write@Xid_log_event@@UEAA_NPEAUst_io_cache@@@Z
?do_commit@Xid_log_event@@EEAA_NPEAVTHD@@@Z
??0XA_prepare_log_event@@QEAA@PEBDPEBVFormat_description_log_event@@@Z
?write@XA_prepare_log_event@@UEAA_NPEAUst_io_cache@@@Z
?pack_info@XA_prepare_log_event@@UEAAHPEAVProtocol@@@Z
?do_commit@XA_prepare_log_event@@UEAA_NPEAVTHD@@@Z
?pack_info@User_var_log_event@@UEAAHPEAVProtocol@@@Z
??0User_var_log_event@@QEAA@PEBDIPEBVFormat_description_event@binary_log@@@Z
?write@User_var_log_event@@UEAA_NPEAUst_io_cache@@@Z
?do_apply_event@User_var_log_event@@EEAAHPEBVRelay_log_info@@@Z
?do_update_pos@User_var_log_event@@EEAAHPEAVRelay_log_info@@@Z
?do_shall_skip@User_var_log_event@@EEAA?AW4enum_skip_reason@Log_event@@PEAVRelay_log_info@@@Z
??0Stop_log_event@@QEAA@PEBDPEBVFormat_description_event@binary_log@@@Z
?do_update_pos@Stop_log_event@@EEAAHPEAVRelay_log_info@@@Z
??0Rotate_log_event@@QEAA@PEBD_K1I@Z
?pack_info@Rotate_log_event@@UEAAHPEAVProtocol@@@Z
??0Rotate_log_event@@QEAA@PEBDIPEBVFormat_description_event@binary_log@@@Z
?write@Rotate_log_event@@UEAA_NPEAUst_io_cache@@@Z
?do_update_pos@Rotate_log_event@@EEAAHPEAVRelay_log_info@@@Z
?do_shall_skip@Rotate_log_event@@EEAA?AW4enum_skip_reason@Log_event@@PEAVRelay_log_info@@@Z
?pack_info@Create_file_log_event@@UEAAHPEAVProtocol@@@Z
??0Create_file_log_event@@QEAA@PEBDIPEBVFormat_description_event@binary_log@@@Z
??1Create_file_log_event@@UEAA@XZ
?get_data_size@Create_file_log_event@@UEAA_KXZ
?write_data_header@Create_file_log_event@@UEAA_NPEAUst_io_cache@@@Z
?write_data_body@Create_file_log_event@@UEAA_NPEAUst_io_cache@@@Z
?write_base@Create_file_log_event@@QEAA_NPEAUst_io_cache@@@Z
?do_apply_event@Create_file_log_event@@EEAAHPEBVRelay_log_info@@@Z
??0Append_block_log_event@@QEAA@PEAVTHD@@PEBDPEAEI_N@Z
?pack_info@Append_block_log_event@@UEAAHPEAVProtocol@@@Z
?get_create_or_append@Append_block_log_event@@UEBAHXZ
??0Append_block_log_event@@QEAA@PEBDIPEBVFormat_description_event@binary_log@@@Z
?write@Append_block_log_event@@UEAA_NPEAUst_io_cache@@@Z
?do_apply_event@Append_block_log_event@@EEAAHPEBVRelay_log_info@@@Z
??0Delete_file_log_event@@QEAA@PEAVTHD@@PEBD_N@Z
?pack_info@Delete_file_log_event@@UEAAHPEAVProtocol@@@Z
??0Delete_file_log_event@@QEAA@PEBDIPEBVFormat_description_event@binary_log@@@Z
??1Delete_file_log_event@@UEAA@XZ
?get_data_size@Delete_file_log_event@@UEAA_KXZ
?write@Delete_file_log_event@@UEAA_NPEAUst_io_cache@@@Z
?get_db@Delete_file_log_event@@UEAAPEBDXZ
?is_sbr_logging_format@Delete_file_log_event@@UEBA_NXZ
?do_apply_event@Delete_file_log_event@@EEAAHPEBVRelay_log_info@@@Z
??0Execute_load_log_event@@QEAA@PEAVTHD@@PEBD_N@Z
?pack_info@Execute_load_log_event@@UEAAHPEAVProtocol@@@Z
??0Execute_load_log_event@@QEAA@PEBDIPEBVFormat_description_event@binary_log@@@Z
??1Execute_load_log_event@@UEAA@XZ
?get_data_size@Execute_load_log_event@@UEAA_KXZ
?write@Execute_load_log_event@@UEAA_NPEAUst_io_cache@@@Z
?get_db@Execute_load_log_event@@UEAAPEBDXZ
?mts_number_dbs@Execute_load_log_event@@UEAAEXZ
?get_mts_dbs@Execute_load_log_event@@UEAAEPEAUst_mts_db_names@@@Z
?do_apply_event@Execute_load_log_event@@EEAAHPEBVRelay_log_info@@@Z
??0Begin_load_query_log_event@@QEAA@PEAVTHD@@PEBDPEAEI_N@Z
?get_create_or_append@Begin_load_query_log_event@@UEBAHXZ
??0Begin_load_query_log_event@@QEAA@PEBDIPEBVFormat_description_event@binary_log@@@Z
?do_shall_skip@Begin_load_query_log_event@@EEAA?AW4enum_skip_reason@Log_event@@PEAVRelay_log_info@@@Z
??0Execute_load_query_log_event@@QEAA@PEAVTHD@@PEBDKIIW4enum_load_dup_handling@binary_log@@_N33H@Z
?pack_info@Execute_load_query_log_event@@UEAAHPEAVProtocol@@@Z
??0Execute_load_query_log_event@@QEAA@PEBDIPEBVFormat_description_event@binary_log@@@Z
??1Execute_load_query_log_event@@UEAA@XZ
?get_post_header_size_for_derived@Execute_load_query_log_event@@UEAAKXZ
?write_post_header_for_derived@Execute_load_query_log_event@@UEAA_NPEAUst_io_cache@@@Z
?is_sbr_logging_format@Execute_load_query_log_event@@UEBA_NXZ
?do_apply_event@Execute_load_query_log_event@@EEAAHPEBVRelay_log_info@@@Z
?str_to_hex@@YAPEADPEADPEBD_K@Z
??0Table_map_log_event@@QEAA@PEAVTHD@@PEAUTABLE@@AEBVTable_id@@_N@Z
??0Table_map_log_event@@QEAA@PEBDIPEBVFormat_description_event@binary_log@@@Z
??1Table_map_log_event@@UEAA@XZ
?get_data_size@Table_map_log_event@@UEAA_KXZ
?save_field_metadata@Table_map_log_event@@UEAAHXZ
?write_data_header@Table_map_log_event@@UEAA_NPEAUst_io_cache@@@Z
?write_data_body@Table_map_log_event@@UEAA_NPEAUst_io_cache@@@Z
?get_db@Table_map_log_event@@UEAAPEBDXZ
?mts_number_dbs@Table_map_log_event@@UEAAEXZ
?get_mts_dbs@Table_map_log_event@@UEAAEPEAUst_mts_db_names@@@Z
?pack_info@Table_map_log_event@@UEAAHPEAVProtocol@@@Z
?is_rbr_logging_format@Table_map_log_event@@UEBA_NXZ
?do_apply_event@Table_map_log_event@@EEAAHPEBVRelay_log_info@@@Z
?do_update_pos@Table_map_log_event@@EEAAHPEAVRelay_log_info@@@Z
?do_shall_skip@Table_map_log_event@@EEAA?AW4enum_skip_reason@Log_event@@PEAVRelay_log_info@@@Z
??1Rows_log_event@@UEAA@XZ
?pack_info@Rows_log_event@@UEAAHPEAVProtocol@@@Z
?get_data_size@Rows_log_event@@UEAA_KXZ
?read_write_bitmaps_cmp@Rows_log_event@@UEAA_NPEAUTABLE@@@Z
?write_data_header@Rows_log_event@@UEAA_NPEAUst_io_cache@@@Z
?write_data_body@Rows_log_event@@UEAA_NPEAUst_io_cache@@@Z
?get_db@Rows_log_event@@UEAAPEBDXZ
??0Rows_log_event@@IEAA@PEAVTHD@@PEAUTABLE@@AEBVTable_id@@PEBUst_bitmap@@_NW4Log_event_type@binary_log@@PEBE@Z
??0Rows_log_event@@IEAA@PEBDIPEBVFormat_description_event@binary_log@@@Z
?do_add_row_data@Rows_log_event@@MEAAHPEAE_K@Z
??RKey_compare@Rows_log_event@@QEBA_NPEAE0@Z
??0?$_Tree@V?$_Tset_traits@PEAEVKey_compare@Rows_log_event@@V?$allocator@PEAE@std@@$0A@@std@@@std@@QEAA@AEBVKey_compare@Rows_log_event@@@Z
??1?$_Tree@V?$_Tset_traits@PEAEVKey_compare@Rows_log_event@@V?$allocator@PEAE@std@@$0A@@std@@@std@@QEAA@XZ
?begin@?$_Tree@V?$_Tset_traits@PEAEVKey_compare@Rows_log_event@@V?$allocator@PEAE@std@@$0A@@std@@@std@@QEAA?AV?$_Tree_const_iterator@V?$_Tree_val@U?$_Tree_simple_types@PEAE@std@@@std@@@2@XZ
?end@?$_Tree@V?$_Tset_traits@PEAEVKey_compare@Rows_log_event@@V?$allocator@PEAE@std@@$0A@@std@@@std@@QEAA?AV?$_Tree_const_iterator@V?$_Tree_val@U?$_Tree_simple_types@PEAE@std@@@std@@@2@XZ
?_Check_grow_by_1@?$_Tree@V?$_Tset_traits@PEAEVKey_compare@Rows_log_event@@V?$allocator@PEAE@std@@$0A@@std@@@std@@IEAAXXZ
?_Alloc_sentinel_and_proxy@?$_Tree@V?$_Tset_traits@PEAEVKey_compare@Rows_log_event@@V?$allocator@PEAE@std@@$0A@@std@@@std@@IEAAXXZ
?_Lrotate@?$_Tree_val@U?$_Tree_simple_types@PEAE@std@@@std@@QEAAXPEAU?$_Tree_node@PEAEPEAX@2@@Z
?_Rrotate@?$_Tree_val@U?$_Tree_simple_types@PEAE@std@@@std@@QEAAXPEAU?$_Tree_node@PEAEPEAX@2@@Z
?_Insert_node@?$_Tree_val@U?$_Tree_simple_types@PEAE@std@@@std@@QEAAPEAU?$_Tree_node@PEAEPEAX@2@U?$_Tree_id@PEAU?$_Tree_node@PEAEPEAX@std@@@2@QEAU32@@Z
??1?$set@PEAEVKey_compare@Rows_log_event@@V?$allocator@PEAE@std@@@std@@QEAA@XZ
??E?$_Tree_unchecked_const_iterator@V?$_Tree_val@U?$_Tree_simple_types@PEAE@std@@@std@@U_Iterator_base12@2@@std@@QEAAAEAV01@XZ
??D?$_Tree_const_iterator@V?$_Tree_val@U?$_Tree_simple_types@PEAE@std@@@std@@@std@@QEBAAEBQEAEXZ
??E?$_Tree_const_iterator@V?$_Tree_val@U?$_Tree_simple_types@PEAE@std@@@std@@@std@@QEAAAEAV01@XZ
??E?$_Tree_const_iterator@V?$_Tree_val@U?$_Tree_simple_types@PEAE@std@@@std@@@std@@QEAA?AV01@H@Z
??8?$_Tree_const_iterator@V?$_Tree_val@U?$_Tree_simple_types@PEAE@std@@@std@@@std@@QEBA_NAEBV01@@Z
??1?$_Tree_const_iterator@V?$_Tree_val@U?$_Tree_simple_types@PEAE@std@@@std@@@std@@QEAA@XZ
?unpack_current_row@Rows_log_event@@IEAAHQEBVRelay_log_info@@PEBUst_bitmap@@@Z
?decide_row_lookup_algorithm_and_key@Rows_log_event@@IEAAXXZ
?row_operations_scan_and_key_setup@Rows_log_event@@IEAAHXZ
?row_operations_scan_and_key_teardown@Rows_log_event@@IEAAHH@Z
?is_auto_inc_in_extra_columns@Rows_log_event@@IEAA_NXZ
?is_rbr_logging_format@Rows_log_event@@MEBA_NXZ
?do_apply_event@Rows_log_event@@EEAAHPEBVRelay_log_info@@@Z
?do_update_pos@Rows_log_event@@EEAAHPEAVRelay_log_info@@@Z
?do_shall_skip@Rows_log_event@@EEAA?AW4enum_skip_reason@Log_event@@PEAVRelay_log_info@@@Z
?handle_idempotent_and_ignored_errors@Rows_log_event@@AEAAHPEBVRelay_log_info@@PEAH@Z
?do_post_row_operations@Rows_log_event@@AEAAXPEBVRelay_log_info@@H@Z
?do_apply_row@Rows_log_event@@AEAAHPEBVRelay_log_info@@@Z
?do_index_scan_and_update@Rows_log_event@@AEAAHPEBVRelay_log_info@@@Z
?do_hash_scan_and_update@Rows_log_event@@AEAAHPEBVRelay_log_info@@@Z
?do_table_scan_and_update@Rows_log_event@@AEAAHPEBVRelay_log_info@@@Z
?open_record_scan@Rows_log_event@@AEAAHXZ
?close_record_scan@Rows_log_event@@AEAAHXZ
?next_record_scan@Rows_log_event@@AEAAH_N@Z
?add_key_to_distinct_keyset@Rows_log_event@@AEAAHXZ
?do_hash_row@Rows_log_event@@AEAAHPEBVRelay_log_info@@@Z
?do_scan_and_update@Rows_log_event@@AEAAHPEBVRelay_log_info@@@Z
??0Write_rows_log_event@@QEAA@PEAVTHD@@PEAUTABLE@@AEBVTable_id@@_NPEBE@Z
??0Write_rows_log_event@@QEAA@PEBDIPEBVFormat_description_event@binary_log@@@Z
?write_row@Write_rows_log_event@@IEAAHQEBVRelay_log_info@@_N@Z
?get_general_type_code@Write_rows_log_event@@EEAA?AW4Log_event_type@binary_log@@XZ
?do_before_row_operations@Write_rows_log_event@@EEAAHQEBVSlave_reporting_capability@@@Z
?do_after_row_operations@Write_rows_log_event@@EEAAHQEBVSlave_reporting_capability@@H@Z
?do_exec_row@Write_rows_log_event@@EEAAHQEBVRelay_log_info@@@Z
??0Update_rows_log_event@@QEAA@PEAVTHD@@PEAUTABLE@@AEBVTable_id@@_NPEBE@Z
?init@Update_rows_log_event@@QEAAXPEBUst_bitmap@@@Z
??1Update_rows_log_event@@UEAA@XZ
??0Update_rows_log_event@@QEAA@PEBDIPEBVFormat_description_event@binary_log@@@Z
?get_general_type_code@Update_rows_log_event@@MEAA?AW4Log_event_type@binary_log@@XZ
?do_before_row_operations@Update_rows_log_event@@MEAAHQEBVSlave_reporting_capability@@@Z
?do_after_row_operations@Update_rows_log_event@@MEAAHQEBVSlave_reporting_capability@@H@Z
?do_exec_row@Update_rows_log_event@@MEAAHQEBVRelay_log_info@@@Z
??0Delete_rows_log_event@@QEAA@PEAVTHD@@PEAUTABLE@@AEBVTable_id@@_NPEBE@Z
??0Delete_rows_log_event@@QEAA@PEBDIPEBVFormat_description_event@binary_log@@@Z
?get_general_type_code@Delete_rows_log_event@@MEAA?AW4Log_event_type@binary_log@@XZ
?do_before_row_operations@Delete_rows_log_event@@MEAAHQEBVSlave_reporting_capability@@@Z
?do_after_row_operations@Delete_rows_log_event@@MEAAHQEBVSlave_reporting_capability@@H@Z
?do_exec_row@Delete_rows_log_event@@MEAAHQEBVRelay_log_info@@@Z
?pack_info@Incident_log_event@@UEAAHPEAVProtocol@@@Z
??0Incident_log_event@@QEAA@PEBDIPEBVFormat_description_event@binary_log@@@Z
??1Incident_log_event@@UEAA@XZ
?do_apply_event@Incident_log_event@@UEAAHPEBVRelay_log_info@@@Z
?write_data_header@Incident_log_event@@UEAA_NPEAUst_io_cache@@@Z
?write_data_body@Incident_log_event@@UEAA_NPEAUst_io_cache@@@Z
?description@Incident_log_event@@AEBAPEBDXZ
??0Ignorable_log_event@@QEAA@PEBDPEBVFormat_description_event@binary_log@@@Z
??1Ignorable_log_event@@UEAA@XZ
?pack_info@Ignorable_log_event@@UEAAHPEAVProtocol@@@Z
?pack_info@Rows_query_log_event@@UEAAHPEAVProtocol@@@Z
??0Rows_query_log_event@@QEAA@PEBDIPEBVFormat_description_event@binary_log@@@Z
?write_data_body@Rows_query_log_event@@UEAA_NPEAUst_io_cache@@@Z
?do_apply_event@Rows_query_log_event@@UEAAHPEBVRelay_log_info@@@Z
??0Heartbeat_log_event@@QEAA@PEBDIPEBVFormat_description_event@binary_log@@@Z
??1Heartbeat_log_event@@UEAA@XZ
?slave_execute_deferred_events@@YA_NPEAVTHD@@@Z
?append_query_string@@YAHPEAVTHD@@PEBUcharset_info_st@@PEBVString@@PEAV3@@Z
??0Gtid_log_event@@QEAA@PEAVTHD@@_N_J21@Z
??0Gtid_log_event@@QEAA@I_N_J10UGtid_specification@@@Z
?pack_info@Gtid_log_event@@UEAAHPEAVProtocol@@@Z
??0Gtid_log_event@@QEAA@PEBDIPEBVFormat_description_event@binary_log@@@Z
?to_string@Gtid_log_event@@AEBA_KPEAD@Z
?write_data_header@Gtid_log_event@@EEAA_NPEAUst_io_cache@@@Z
?write_data_header_to_memory@Gtid_log_event@@AEAAIPEAE@Z
?do_apply_event@Gtid_log_event@@UEAAHPEBVRelay_log_info@@@Z
?do_update_pos@Gtid_log_event@@UEAAHPEAVRelay_log_info@@@Z
?do_shall_skip@Gtid_log_event@@UEAA?AW4enum_skip_reason@Log_event@@PEAVRelay_log_info@@@Z
?get_sidno@Gtid_log_event@@QEAAH_N@Z
??0Previous_gtids_log_event@@QEAA@PEBVGtid_set@@@Z
?pack_info@Previous_gtids_log_event@@UEAAHPEAVProtocol@@@Z
??0Previous_gtids_log_event@@QEAA@PEBDIPEBVFormat_description_event@binary_log@@@Z
?write_data_body@Previous_gtids_log_event@@UEAA_NPEAUst_io_cache@@@Z
?get_str@Previous_gtids_log_event@@QEBAPEADPEA_KPEBUString_format@Gtid_set@@@Z
?add_to_set@Previous_gtids_log_event@@QEBAHPEAVGtid_set@@@Z
?do_update_pos@Previous_gtids_log_event@@UEAAHPEAVRelay_log_info@@@Z
?write_data_header@Transaction_context_log_event@@EEAA_NPEAUst_io_cache@@@Z
?write_data_body@Transaction_context_log_event@@EEAA_NPEAUst_io_cache@@@Z
?write_snapshot_version@Transaction_context_log_event@@AEAA_NPEAUst_io_cache@@@Z
?write_data_set@Transaction_context_log_event@@AEAA_NPEAUst_io_cache@@PEAV?$list@PEBDV?$allocator@PEBD@std@@@std@@@Z
?get_snapshot_version_size@Transaction_context_log_event@@AEAA_KXZ
?get_data_set_size@Transaction_context_log_event@@CAHPEAV?$list@PEBDV?$allocator@PEBD@std@@@std@@@Z
?to_string@Transaction_context_log_event@@AEBA_KPEADK@Z
??0Transaction_context_log_event@@QEAA@PEBD_NI1@Z
??0Transaction_context_log_event@@QEAA@PEBDIPEBVFormat_description_event@binary_log@@@Z
??1Transaction_context_log_event@@UEAA@XZ
?get_data_size@Transaction_context_log_event@@UEAA_KXZ
?pack_info@Transaction_context_log_event@@UEAAHPEAVProtocol@@@Z
?do_apply_event@Transaction_context_log_event@@UEAAHPEBVRelay_log_info@@@Z
?do_update_pos@Transaction_context_log_event@@UEAAHPEAVRelay_log_info@@@Z
?add_write_set@Transaction_context_log_event@@QEAAXPEBD@Z
?add_read_set@Transaction_context_log_event@@QEAAXPEBD@Z
?read_snapshot_version@Transaction_context_log_event@@QEAA_NXZ
?to_string@View_change_log_event@@AEBA_KPEADK@Z
?write_data_header@View_change_log_event@@EEAA_NPEAUst_io_cache@@@Z
?write_data_body@View_change_log_event@@EEAA_NPEAUst_io_cache@@@Z
?write_data_map@View_change_log_event@@AEAA_NPEAUst_io_cache@@PEAV?$map@V?$basic_string@DU?$char_traits@D@std@@V?$allocator@D@2@@std@@V12@U?$less@V?$basic_string@DU?$char_traits@D@std@@V?$allocator@D@2@@std@@@2@V?$allocator@U?$pair@$$CBV?$basic_string@DU?$char_traits@D@std@@V?$allocator@D@2@@std@@V12@@std@@@2@@std@@@Z
?get_size_data_map@View_change_log_event@@AEAA_KPEAV?$map@V?$basic_string@DU?$char_traits@D@std@@V?$allocator@D@2@@std@@V12@U?$less@V?$basic_string@DU?$char_traits@D@std@@V?$allocator@D@2@@std@@@2@V?$allocator@U?$pair@$$CBV?$basic_string@DU?$char_traits@D@std@@V?$allocator@D@2@@std@@V12@@std@@@2@@std@@@Z
??0View_change_log_event@@QEAA@PEAD@Z
??0View_change_log_event@@QEAA@PEBDIPEBVFormat_description_event@binary_log@@@Z
??1View_change_log_event@@UEAA@XZ
?get_data_size@View_change_log_event@@UEAA_KXZ
?pack_info@View_change_log_event@@UEAAHPEAVProtocol@@@Z
?do_apply_event@View_change_log_event@@UEAAHPEBVRelay_log_info@@@Z
?do_update_pos@View_change_log_event@@UEAAHPEAVRelay_log_info@@@Z
?set_certification_info@View_change_log_event@@QEAAXPEAV?$map@V?$basic_string@DU?$char_traits@D@std@@V?$allocator@D@2@@std@@V12@U?$less@V?$basic_string@DU?$char_traits@D@std@@V?$allocator@D@2@@std@@@2@V?$allocator@U?$pair@$$CBV?$basic_string@DU?$char_traits@D@std@@V?$allocator@D@2@@std@@V12@@std@@@2@@std@@PEA_K@Z
?my_strmov_quoted_identifier@@YA_KPEAVTHD@@PEADPEBD_K@Z
?my_strmov_quoted_identifier_helper@@YA_KHPEADPEBD_K@Z
?clear_error@Slave_reporting_capability@@QEAAXXZ
??A?$vector@PEAVSlave_worker@@V?$allocator@PEAVSlave_worker@@@std@@@std@@QEAAAEAPEAVSlave_worker@@_K@Z
?back@?$Prealloced_array@Uslave_job_item@@$07$00@@QEAAAEAUslave_job_item@@XZ
?reserve@?$Prealloced_array@Uslave_job_item@@$07$00@@QEAA_N_K@Z
?push_back@?$Prealloced_array@Uslave_job_item@@$07$00@@QEAA_NAEBUslave_job_item@@@Z
?clear@?$Prealloced_array@Uslave_job_item@@$07$00@@QEAAXXZ
?get_worker_count@Relay_log_info@@QEAA_KXZ
?get_worker@Relay_log_info@@QEAAPEAVSlave_worker@@_K@Z
?is_parallel_exec@Relay_log_info@@QEBA_NXZ
?reset@st_slave_job_group@@QEAAX_K0@Z
?de_tail@?$circular_buffer_queue@Ust_slave_job_group@@@@QEAAKPEAUst_slave_job_group@@@Z
?en_queue@?$circular_buffer_queue@Ust_slave_job_group@@@@QEAAKPEAUst_slave_job_group@@@Z
?get_job_group@Slave_committed_queue@@QEAAPEAUst_slave_job_group@@K@Z
?convert_handler_error@@YAHHPEAVTHD@@PEAUTABLE@@@Z
?schedule_next_event@@YA_NPEAVLog_event@@PEAVRelay_log_info@@@Z
?set_extra_data@@YAPEBEPEAE@Z
?check_extra_data@@YAXPEAE@Z
??$insert@$0A@$0A@@?$_Tree@V?$_Tset_traits@PEAEVKey_compare@Rows_log_event@@V?$allocator@PEAE@std@@$0A@@std@@@std@@QEAA?AU?$pair@V?$_Tree_const_iterator@V?$_Tree_val@U?$_Tree_simple_types@PEAE@std@@@std@@@std@@_N@1@AEBQEAE@Z
?is_duplicate_key_error@@YA_NH@Z
??0?$_List_unchecked_const_iterator@V?$_List_val@U?$_List_simple_types@PEBD@std@@@std@@U_Iterator_base12@2@@std@@QEAA@PEAU?$_List_node@PEBDPEAX@1@PEBV?$_List_val@U?$_List_simple_types@PEBD@std@@@1@@Z
??D?$_List_const_iterator@V?$_List_val@U?$_List_simple_types@PEBD@std@@@std@@@std@@QEBAAEBQEBDXZ
??E?$_List_const_iterator@V?$_List_val@U?$_List_simple_types@PEBD@std@@@std@@@std@@QEAAAEAV01@XZ
??8?$_List_const_iterator@V?$_List_val@U?$_List_simple_types@PEBD@std@@@std@@@std@@QEBA_NAEBV01@@Z
??1?$_List_iterator@V?$_List_val@U?$_List_simple_types@PEBD@std@@@std@@@std@@QEAA@XZ
??0?$_Tree_unchecked_const_iterator@V?$_Tree_val@U?$_Tree_simple_types@U?$pair@$$CBV?$basic_string@DU?$char_traits@D@std@@V?$allocator@D@2@@std@@V12@@std@@@std@@@std@@U_Iterator_base12@2@@std@@QEAA@XZ
??E?$_Tree_unchecked_const_iterator@V?$_Tree_val@U?$_Tree_simple_types@U?$pair@$$CBV?$basic_string@DU?$char_traits@D@std@@V?$allocator@D@2@@std@@V12@@std@@@std@@@std@@U_Iterator_base12@2@@std@@QEAAAEAV01@XZ
??4?$_Tree_unchecked_const_iterator@V?$_Tree_val@U?$_Tree_simple_types@U?$pair@$$CBV?$basic_string@DU?$char_traits@D@std@@V?$allocator@D@2@@std@@V12@@std@@@std@@@std@@U_Iterator_base12@2@@std@@QEAAAEAV01@$$QEAV01@@Z
??D?$_Tree_const_iterator@V?$_Tree_val@U?$_Tree_simple_types@U?$pair@$$CBV?$basic_string@DU?$char_traits@D@std@@V?$allocator@D@2@@std@@V12@@std@@@std@@@std@@@std@@QEBAAEBU?$pair@$$CBV?$basic_string@DU?$char_traits@D@std@@V?$allocator@D@2@@std@@V12@@1@XZ
??E?$_Tree_const_iterator@V?$_Tree_val@U?$_Tree_simple_types@U?$pair@$$CBV?$basic_string@DU?$char_traits@D@std@@V?$allocator@D@2@@std@@V12@@std@@@std@@@std@@@std@@QEAAAEAV01@XZ
??8?$_Tree_const_iterator@V?$_Tree_val@U?$_Tree_simple_types@U?$pair@$$CBV?$basic_string@DU?$char_traits@D@std@@V?$allocator@D@2@@std@@V12@@std@@@std@@@std@@@std@@QEBA_NAEBV01@@Z
??0?$_Tree_const_iterator@V?$_Tree_val@U?$_Tree_simple_types@U?$pair@$$CBV?$basic_string@DU?$char_traits@D@std@@V?$allocator@D@2@@std@@V12@@std@@@std@@@std@@@std@@QEAA@XZ
??0?$_Tree_const_iterator@V?$_Tree_val@U?$_Tree_simple_types@U?$pair@$$CBV?$basic_string@DU?$char_traits@D@std@@V?$allocator@D@2@@std@@V12@@std@@@std@@@std@@@std@@QEAA@AEBV01@@Z
??0?$_Tree_const_iterator@V?$_Tree_val@U?$_Tree_simple_types@U?$pair@$$CBV?$basic_string@DU?$char_traits@D@std@@V?$allocator@D@2@@std@@V12@@std@@@std@@@std@@@std@@QEAA@PEAU?$_Tree_node@U?$pair@$$CBV?$basic_string@DU?$char_traits@D@std@@V?$allocator@D@2@@std@@V12@@std@@PEAX@1@PEBV?$_Tree_val@U?$_Tree_simple_types@U?$pair@$$CBV?$basic_string@DU?$char_traits@D@std@@V?$allocator@D@2@@std@@V12@@std@@@std@@@1@@Z
??1?$_Tree_iterator@V?$_Tree_val@U?$_Tree_simple_types@U?$pair@$$CBV?$basic_string@DU?$char_traits@D@std@@V?$allocator@D@2@@std@@V12@@std@@@std@@@std@@@std@@QEAA@XZ
??0?$_Tree_iterator@V?$_Tree_val@U?$_Tree_simple_types@U?$pair@$$CBV?$basic_string@DU?$char_traits@D@std@@V?$allocator@D@2@@std@@V12@@std@@@std@@@std@@@std@@QEAA@AEBV01@@Z
??0?$_Tree_iterator@V?$_Tree_val@U?$_Tree_simple_types@U?$pair@$$CBV?$basic_string@DU?$char_traits@D@std@@V?$allocator@D@2@@std@@V12@@std@@@std@@@std@@@std@@QEAA@$$QEAV01@@Z
??0?$_Tree_iterator@V?$_Tree_val@U?$_Tree_simple_types@U?$pair@$$CBV?$basic_string@DU?$char_traits@D@std@@V?$allocator@D@2@@std@@V12@@std@@@std@@@std@@@std@@QEAA@PEAU?$_Tree_node@U?$pair@$$CBV?$basic_string@DU?$char_traits@D@std@@V?$allocator@D@2@@std@@V12@@std@@PEAX@1@PEBV?$_Tree_val@U?$_Tree_simple_types@U?$pair@$$CBV?$basic_string@DU?$char_traits@D@std@@V?$allocator@D@2@@std@@V12@@std@@@std@@@1@@Z
??$_Try_emplace@AEBV?$basic_string@DU?$char_traits@D@std@@V?$allocator@D@2@@std@@$$V@?$map@V?$basic_string@DU?$char_traits@D@std@@V?$allocator@D@2@@std@@V12@U?$less@V?$basic_string@DU?$char_traits@D@std@@V?$allocator@D@2@@std@@@2@V?$allocator@U?$pair@$$CBV?$basic_string@DU?$char_traits@D@std@@V?$allocator@D@2@@std@@V12@@std@@@2@@std@@AEAA?AU?$pair@PEAU?$_Tree_node@U?$pair@$$CBV?$basic_string@DU?$char_traits@D@std@@V?$allocator@D@2@@std@@V12@@std@@PEAX@std@@_N@1@AEBV?$basic_string@DU?$char_traits@D@std@@V?$allocator@D@2@@1@@Z
??$_Erase_tree@V?$allocator@U?$_Tree_node@U?$pair@$$CBV?$basic_string@DU?$char_traits@D@std@@V?$allocator@D@2@@std@@V12@@std@@PEAX@std@@@std@@@?$_Tree_val@U?$_Tree_simple_types@U?$pair@$$CBV?$basic_string@DU?$char_traits@D@std@@V?$allocator@D@2@@std@@V12@@std@@@std@@@std@@QEAAXAEAV?$allocator@U?$_Tree_node@U?$pair@$$CBV?$basic_string@DU?$char_traits@D@std@@V?$allocator@D@2@@std@@V12@@std@@PEAX@std@@@1@PEAU?$_Tree_node@U?$pair@$$CBV?$basic_string@DU?$char_traits@D@std@@V?$allocator@D@2@@std@@V12@@std@@PEAX@1@@Z
??$_Emplace@AEBQEBD@?$list@PEBDV?$allocator@PEBD@std@@@std@@QEAAPEAU?$_List_node@PEBDPEAX@1@QEAU21@AEBQEBD@Z
??$_Resize@U_Value_init_tag@std@@@?$vector@EV?$allocator@E@std@@@std@@AEAAX_KAEBU_Value_init_tag@1@@Z
??$_Construct_n_copies_of_ty@U_Value_init_tag@std@@@?$vector@EV?$allocator@E@std@@@std@@AEAAX_KAEBU_Value_init_tag@1@@Z
??$_Construct_in_place@PEAU?$_List_node@PEBDPEAX@std@@AEAPEAU12@@std@@YAXAEAPEAU?$_List_node@PEBDPEAX@0@0@Z
??$_Free_non_head@V?$allocator@U?$_List_node@PEBDPEAX@std@@@std@@@?$_List_node@PEBDPEAX@std@@SAXAEAV?$allocator@U?$_List_node@PEBDPEAX@std@@@1@PEAU01@@Z
??$_Pocca@V?$allocator@D@std@@@std@@YAXAEAV?$allocator@D@0@AEBV10@@Z
??$_Pocma@V?$allocator@D@std@@@std@@YAXAEAV?$allocator@D@0@0@Z
??$_Buyheadnode@V?$allocator@U?$_Tree_node@PEAEPEAX@std@@@std@@@?$_Tree_node@PEAEPEAX@std@@SAPEAU01@AEAV?$allocator@U?$_Tree_node@PEAEPEAX@std@@@1@@Z
??$_Destroy_range@V?$allocator@E@std@@@std@@YAXPEAEQEAEAEAV?$allocator@E@0@@Z
??$_Emplace@AEBQEAE@?$_Tree@V?$_Tset_traits@PEAEVKey_compare@Rows_log_event@@V?$allocator@PEAE@std@@$0A@@std@@@std@@IEAA?AU?$pair@PEAU?$_Tree_node@PEAEPEAX@std@@_N@1@AEBQEAE@Z
??$_Erase_tree@V?$allocator@U?$_Tree_node@PEAEPEAX@std@@@std@@@?$_Tree_val@U?$_Tree_simple_types@PEAE@std@@@std@@QEAAXAEAV?$allocator@U?$_Tree_node@PEAEPEAX@std@@@1@PEAU?$_Tree_node@PEAEPEAX@1@@Z
??$_Freenode0@V?$allocator@U?$_Tree_node@PEAEPEAX@std@@@std@@@?$_Tree_node@PEAEPEAX@std@@SAXAEAV?$allocator@U?$_Tree_node@PEAEPEAX@std@@@1@PEAU01@@Z
??$_Find_lower_bound@V?$basic_string@DU?$char_traits@D@std@@V?$allocator@D@2@@std@@@?$_Tree@V?$_Tmap_traits@V?$basic_string@DU?$char_traits@D@std@@V?$allocator@D@2@@std@@V12@U?$less@V?$basic_string@DU?$char_traits@D@std@@V?$allocator@D@2@@std@@@2@V?$allocator@U?$pair@$$CBV?$basic_string@DU?$char_traits@D@std@@V?$allocator@D@2@@std@@V12@@std@@@2@$0A@@std@@@std@@IEBA?AU?$_Tree_find_result@PEAU?$_Tree_node@U?$pair@$$CBV?$basic_string@DU?$char_traits@D@std@@V?$allocator@D@2@@std@@V12@@std@@PEAX@std@@@1@AEBV?$basic_string@DU?$char_traits@D@std@@V?$allocator@D@2@@1@@Z
?_Allocate@?$_Alloc_construct_ptr@V?$allocator@U?$_Tree_node@U?$pair@$$CBV?$basic_string@DU?$char_traits@D@std@@V?$allocator@D@2@@std@@V12@@std@@PEAX@std@@@std@@@std@@QEAAXXZ
??1?$_Alloc_construct_ptr@V?$allocator@U?$_Tree_node@U?$pair@$$CBV?$basic_string@DU?$char_traits@D@std@@V?$allocator@D@2@@std@@V12@@std@@PEAX@std@@@std@@@std@@QEAA@XZ
??1?$_Tree_temp_node_alloc@V?$allocator@U?$_Tree_node@U?$pair@$$CBV?$basic_string@DU?$char_traits@D@std@@V?$allocator@D@2@@std@@V12@@std@@PEAX@std@@@std@@@std@@QEAA@XZ
??1?$_Tree_temp_node@V?$allocator@U?$_Tree_node@U?$pair@$$CBV?$basic_string@DU?$char_traits@D@std@@V?$allocator@D@2@@std@@V12@@std@@PEAX@std@@@std@@@std@@QEAA@XZ
??$?0AEBUpiecewise_construct_t@std@@V?$tuple@AEBV?$basic_string@DU?$char_traits@D@std@@V?$allocator@D@2@@std@@@1@V?$tuple@$$V@1@@?$_Tree_temp_node@V?$allocator@U?$_Tree_node@U?$pair@$$CBV?$basic_string@DU?$char_traits@D@std@@V?$allocator@D@2@@std@@V12@@std@@PEAX@std@@@std@@@std@@QEAA@AEAV?$allocator@U?$_Tree_node@U?$pair@$$CBV?$basic_string@DU?$char_traits@D@std@@V?$allocator@D@2@@std@@V12@@std@@PEAX@std@@@1@PEAU?$_Tree_node@U?$pair@$$CBV?$basic_string@DU?$char_traits@D@std@@V?$allocator@D@2@@std@@V12@@std@@PEAX@1@AEBUpiecewise_construct_t@1@$$QEAV?$tuple@AEBV?$basic_string@DU?$char_traits@D@std@@V?$allocator@D@2@@std@@@1@$$QEAV?$tuple@$$V@1@@Z
??$_Freenode@V?$allocator@U?$_Tree_node@U?$pair@$$CBV?$basic_string@DU?$char_traits@D@std@@V?$allocator@D@2@@std@@V12@@std@@PEAX@std@@@std@@@?$_Tree_node@U?$pair@$$CBV?$basic_string@DU?$char_traits@D@std@@V?$allocator@D@2@@std@@V12@@std@@PEAX@std@@SAXAEAV?$allocator@U?$_Tree_node@U?$pair@$$CBV?$basic_string@DU?$char_traits@D@std@@V?$allocator@D@2@@std@@V12@@std@@PEAX@std@@@1@PEAU01@@Z
?_Allocate@?$_Alloc_construct_ptr@V?$allocator@U?$_List_node@PEBDPEAX@std@@@std@@@std@@QEAAXXZ
??1?$_Alloc_construct_ptr@V?$allocator@U?$_List_node@PEBDPEAX@std@@@std@@@std@@QEAA@XZ
??1?$_List_node_emplace_op2@V?$allocator@U?$_List_node@PEBDPEAX@std@@@std@@@std@@QEAA@XZ
?_Transfer_before@?$_List_node_emplace_op2@V?$allocator@U?$_List_node@PEBDPEAX@std@@@std@@@std@@QEAAPEAU?$_List_node@PEBDPEAX@2@QEAU32@@Z
??$_Resize_reallocate@U_Value_init_tag@std@@@?$vector@EV?$allocator@E@std@@@std@@AEAAX_KAEBU_Value_init_tag@1@@Z
??1?$_Tidy_guard@V?$vector@EV?$allocator@E@std@@@std@@@std@@QEAA@XZ
??$_Destroy_in_place@PEAU?$_List_node@PEBDPEAX@std@@@std@@YAXAEAPEAU?$_List_node@PEBDPEAX@0@@Z
??$_Construct_in_place@PEAU?$_Tree_node@PEAEPEAX@std@@AEBQEAU12@@std@@YAXAEAPEAU?$_Tree_node@PEAEPEAX@0@AEBQEAU10@@Z
??$_Construct_in_place@PEAU?$_List_node@PEBDPEAX@std@@AEBQEAU12@@std@@YAXAEAPEAU?$_List_node@PEBDPEAX@0@AEBQEAU10@@Z
??$_Destroy_in_place@PEAU?$_Tree_node@U?$pair@$$CBV?$basic_string@DU?$char_traits@D@std@@V?$allocator@D@2@@std@@V12@@std@@PEAX@std@@@std@@YAXAEAPEAU?$_Tree_node@U?$pair@$$CBV?$basic_string@DU?$char_traits@D@std@@V?$allocator@D@2@@std@@V12@@std@@PEAX@0@@Z
??$_Uninitialized_value_construct_n@V?$allocator@E@std@@@std@@YAPEAEPEAE_KAEAV?$allocator@E@0@@Z
??$_Find_lower_bound@PEAE@?$_Tree@V?$_Tset_traits@PEAEVKey_compare@Rows_log_event@@V?$allocator@PEAE@std@@$0A@@std@@@std@@IEBA?AU?$_Tree_find_result@PEAU?$_Tree_node@PEAEPEAX@std@@@1@AEBQEAE@Z
?_Allocate@?$_Alloc_construct_ptr@V?$allocator@U?$_Tree_node@PEAEPEAX@std@@@std@@@std@@QEAAXXZ
??1?$_Alloc_construct_ptr@V?$allocator@U?$_Tree_node@PEAEPEAX@std@@@std@@@std@@QEAA@XZ
??1?$_Tree_temp_node@V?$allocator@U?$_Tree_node@PEAEPEAX@std@@@std@@@std@@QEAA@XZ
??$?0AEBQEAE@?$_Tree_temp_node@V?$allocator@U?$_Tree_node@PEAEPEAX@std@@@std@@@std@@QEAA@AEAV?$allocator@U?$_Tree_node@PEAEPEAX@std@@@1@PEAU?$_Tree_node@PEAEPEAX@1@AEBQEAE@Z
??$_Destroy_in_place@PEAU?$_Tree_node@PEAEPEAX@std@@@std@@YAXAEAPEAU?$_Tree_node@PEAEPEAX@0@@Z
??$_Debug_lt_pred@AEBU?$less@V?$basic_string@DU?$char_traits@D@std@@V?$allocator@D@2@@std@@@std@@AEBV?$basic_string@DU?$char_traits@D@std@@V?$allocator@D@2@@2@AEBV32@$0A@@std@@YA_NAEBU?$less@V?$basic_string@DU?$char_traits@D@std@@V?$allocator@D@2@@std@@@0@AEBV?$basic_string@DU?$char_traits@D@std@@V?$allocator@D@2@@0@1@Z
??$_Construct_in_place@PEAU?$_Tree_node@U?$pair@$$CBV?$basic_string@DU?$char_traits@D@std@@V?$allocator@D@2@@std@@V12@@std@@PEAX@std@@AEAPEAU12@@std@@YAXAEAPEAU?$_Tree_node@U?$pair@$$CBV?$basic_string@DU?$char_traits@D@std@@V?$allocator@D@2@@std@@V12@@std@@PEAX@0@0@Z
??$_Freenode0@V?$allocator@U?$_Tree_node@U?$pair@$$CBV?$basic_string@DU?$char_traits@D@std@@V?$allocator@D@2@@std@@V12@@std@@PEAX@std@@@std@@@?$_Tree_node@U?$pair@$$CBV?$basic_string@DU?$char_traits@D@std@@V?$allocator@D@2@@std@@V12@@std@@PEAX@std@@SAXAEAV?$allocator@U?$_Tree_node@U?$pair@$$CBV?$basic_string@DU?$char_traits@D@std@@V?$allocator@D@2@@std@@V12@@std@@PEAX@std@@@1@PEAU01@@Z
??$_Zero_range@PEAE@std@@YAPEAEQEAE0@Z
??$_Uninitialized_move@PEAEV?$allocator@E@std@@@std@@YAPEAEQEAE0PEAEAEAV?$allocator@E@0@@Z
??$_Debug_lt_pred@AEBVKey_compare@Rows_log_event@@AEBQEAEAEBQEAE$0A@@std@@YA_NAEBVKey_compare@Rows_log_event@@AEBQEAE1@Z
??$_Construct_in_place@PEAU?$_Tree_node@PEAEPEAX@std@@AEAPEAU12@@std@@YAXAEAPEAU?$_Tree_node@PEAEPEAX@0@0@Z
??$?0AEBV?$basic_string@DU?$char_traits@D@std@@V?$allocator@D@2@@std@@$$Z$$V@?$pair@$$CBV?$basic_string@DU?$char_traits@D@std@@V?$allocator@D@2@@std@@V12@@std@@QEAA@Upiecewise_construct_t@1@V?$tuple@AEBV?$basic_string@DU?$char_traits@D@std@@V?$allocator@D@2@@std@@@1@V?$tuple@$$V@1@@Z
??$_Copy_memmove@PEAEPEAE@std@@YAPEAEPEAE00@Z
??$?MDU?$char_traits@D@std@@V?$allocator@D@1@@std@@YA_NAEBV?$basic_string@DU?$char_traits@D@std@@V?$allocator@D@2@@0@0@Z
??_8Begin_load_query_event@binary_log@@7B@ DATA
??_8Write_rows_event@binary_log@@7B@ DATA
??_8Update_rows_event@binary_log@@7B@ DATA
??_8Delete_rows_event@binary_log@@7B@ DATA
??_8Query_log_event@@7B@ DATA
??_8Load_log_event@@7B@ DATA
??_8Start_log_event_v3@@7B@ DATA
??_8Format_description_log_event@@7BFormat_description_event@binary_log@@@ DATA
??_8Format_description_log_event@@7BStart_log_event_v3@@@ DATA
??_8Create_file_log_event@@7BLoad_log_event@@@ DATA
??_8Create_file_log_event@@7BCreate_file_event@binary_log@@@ DATA
??_8Append_block_log_event@@7B@ DATA
??_8Begin_load_query_log_event@@7BAppend_block_log_event@@@ DATA
??_8Begin_load_query_log_event@@7BBegin_load_query_event@binary_log@@@ DATA
??_8Execute_load_query_log_event@@7BQuery_log_event@@@ DATA
??_8Execute_load_query_log_event@@7BExecute_load_query_event@binary_log@@@ DATA
??_8Write_rows_log_event@@7BRows_log_event@@@ DATA
??_8Write_rows_log_event@@7BWrite_rows_event@binary_log@@@ DATA
??_8Update_rows_log_event@@7BRows_log_event@@@ DATA
??_8Update_rows_log_event@@7BUpdate_rows_event@binary_log@@@ DATA
??_8Delete_rows_log_event@@7BRows_log_event@@@ DATA
??_8Delete_rows_log_event@@7BDelete_rows_event@binary_log@@@ DATA
?slave_ignored_err_throttle@@3VError_log_throttle@@A DATA
?DB_NAME@Gtid_table_access_context@@2Ust_mysql_lex_string@@B DATA
?TABLE_NAME@Gtid_table_access_context@@2Ust_mysql_lex_string@@B DATA
?compress_thread_id@@3Ust_my_thread_handle@@A DATA
?append@?$basic_string@DU?$char_traits@D@std@@V?$allocator@D@2@@std@@QEAAAEAV12@QEBD_K@Z
?_Calculate_growth@?$basic_string@DU?$char_traits@D@std@@V?$allocator@D@2@@std@@CA_K_K00@Z
??1?$Prealloced_array@PEAVReprepare_observer@@$03$00@@QEAA@XZ
?set_time@THD@@QEAAXXZ
?begin_attachable_rw_transaction@THD@@QEAAXXZ
?is_attachable_rw_transaction_active@THD@@QEBA_NXZ
??0Gtid_table_access_context@@QEAA@XZ
??1Gtid_table_access_context@@UEAA@XZ
?init@Gtid_table_access_context@@QEAA_NPEAPEAVTHD@@PEAPEAUTABLE@@_N@Z
?deinit@Gtid_table_access_context@@QEAA_NPEAVTHD@@PEAUTABLE@@_N2@Z
?before_open@Gtid_table_access_context@@UEAAXPEAVTHD@@@Z
?create_thd@Gtid_table_access_context@@QEAAPEAVTHD@@XZ
?drop_thd@Gtid_table_access_context@@QEAAXPEAVTHD@@@Z
?save@Gtid_table_persistor@@QEAAHPEAVTHD@@PEBUGtid@@@Z
?save@Gtid_table_persistor@@QEAAHPEBVGtid_set@@@Z
?reset@Gtid_table_persistor@@QEAAHPEAVTHD@@@Z
?fetch_gtids@Gtid_table_persistor@@QEAAHPEAVGtid_set@@@Z
?compress@Gtid_table_persistor@@QEAAHPEAVTHD@@@Z
?compress_in_single_transaction@Gtid_table_persistor@@AEAAHPEAVTHD@@AEA_N@Z
?compress_first_consecutive_range@Gtid_table_persistor@@AEAAHPEAUTABLE@@AEA_N@Z
?fill_fields@Gtid_table_persistor@@AEAAHPEAPEAVField@@PEBD_J2@Z
?write_row@Gtid_table_persistor@@AEAAHPEAUTABLE@@PEBD_J2@Z
?update_row@Gtid_table_persistor@@AEAAHPEAUTABLE@@PEBD_J2@Z
?delete_all@Gtid_table_persistor@@AEAAHPEAUTABLE@@@Z
?encode_gtid_text@Gtid_table_persistor@@AEAA?AV?$basic_string@DU?$char_traits@D@std@@V?$allocator@D@2@@std@@PEAUTABLE@@@Z
?get_gtid_interval@Gtid_table_persistor@@AEAAXPEAUTABLE@@AEAV?$basic_string@DU?$char_traits@D@std@@V?$allocator@D@2@@std@@AEA_J2@Z
?save@Gtid_table_persistor@@AEAAHPEAUTABLE@@PEBVGtid_set@@@Z
?create_compress_gtid_table_thread@@YAXXZ
?terminate_compress_gtid_table_thread@@YAXXZ
?is_read_only@Attachable_trx_rw@THD@@UEBA_NXZ
??0Attachable_trx_rw@THD@@QEAA@PEAV1@@Z
??1Attachable_trx_rw@THD@@UEAA@XZ
??0?$list@UGtid_interval@@V?$allocator@UGtid_interval@@@std@@@std@@QEAA@XZ
??1?$list@UGtid_interval@@V?$allocator@UGtid_interval@@@std@@@std@@QEAA@XZ
?clear@?$list@UGtid_interval@@V?$allocator@UGtid_interval@@@std@@@std@@QEAAXXZ
?_Tidy@?$list@UGtid_interval@@V?$allocator@UGtid_interval@@@std@@@std@@AEAAXXZ
?_Alloc_sentinel_and_proxy@?$list@UGtid_interval@@V?$allocator@UGtid_interval@@@std@@@std@@AEAAXXZ
?_Orphan_non_end@?$_List_val@U?$_List_simple_types@UGtid_interval@@@std@@@std@@QEAAXXZ
??0?$_List_unchecked_const_iterator@V?$_List_val@U?$_List_simple_types@UGtid_interval@@@std@@@std@@U_Iterator_base12@2@@std@@QEAA@XZ
??D?$_List_const_iterator@V?$_List_val@U?$_List_simple_types@UGtid_interval@@@std@@@std@@@std@@QEBAAEBUGtid_interval@@XZ
??E?$_List_const_iterator@V?$_List_val@U?$_List_simple_types@UGtid_interval@@@std@@@std@@@std@@QEAAAEAV01@XZ
??8?$_List_const_iterator@V?$_List_val@U?$_List_simple_types@UGtid_interval@@@std@@@std@@@std@@QEBA_NAEBV01@@Z
??0?$_List_const_iterator@V?$_List_val@U?$_List_simple_types@UGtid_interval@@@std@@@std@@@std@@QEAA@PEAU?$_List_node@UGtid_interval@@PEAX@1@PEBV?$_List_val@U?$_List_simple_types@UGtid_interval@@@std@@@1@@Z
??1?$_List_iterator@V?$_List_val@U?$_List_simple_types@UGtid_interval@@@std@@@std@@@std@@QEAA@XZ
??0?$_List_iterator@V?$_List_val@U?$_List_simple_types@UGtid_interval@@@std@@@std@@@std@@QEAA@AEBV01@@Z
??0?$_List_iterator@V?$_List_val@U?$_List_simple_types@UGtid_interval@@@std@@@std@@@std@@QEAA@$$QEAV01@@Z
compress_gtid_table
??$_Free_non_head@V?$allocator@U?$_List_node@UGtid_interval@@PEAX@std@@@std@@@?$_List_node@UGtid_interval@@PEAX@std@@SAXAEAV?$allocator@U?$_List_node@UGtid_interval@@PEAX@std@@@1@PEAU01@@Z
??$_Construct_in_place@PEAU?$_List_node@UGtid_interval@@PEAX@std@@AEAPEAU12@@std@@YAXAEAPEAU?$_List_node@UGtid_interval@@PEAX@0@0@Z
??$_Reallocate_grow_by@V<lambda_65e615be2a453ca0576c979606f46740>@@PEBD_K@?$basic_string@DU?$char_traits@D@std@@V?$allocator@D@2@@std@@AEAAAEAV01@_KV<lambda_65e615be2a453ca0576c979606f46740>@@PEBD_K@Z
??$_Destroy_in_place@PEAU?$_List_node@UGtid_interval@@PEAX@std@@@std@@YAXAEAPEAU?$_List_node@UGtid_interval@@PEAX@0@@Z
??0Mutex_cond_array@@QEAA@PEAVCheckable_rwlock@@@Z
??1Mutex_cond_array@@QEAA@XZ
?enter_cond@Mutex_cond_array@@QEBAXPEAVTHD@@HPEAUPSI_stage_info_v1@@1@Z
?ensure_index@Mutex_cond_array@@QEAA?AW4enum_return_status@@H@Z
?is_thd_killed@Mutex_cond_array@@AEBA_NPEBVTHD@@@Z
??1?$Prealloced_array@PEAUMutex_cond@Mutex_cond_array@@$07$00@@QEAA@XZ
?reserve@?$Prealloced_array@PEAUMutex_cond@Mutex_cond_array@@$07$00@@QEAA_N_K@Z
?push_back@?$Prealloced_array@PEAUMutex_cond@Mutex_cond_array@@$07$00@@QEAA_NAEBQEAUMutex_cond@Mutex_cond_array@@@Z
?lock@Mutex_cond_array@@QEBAXH@Z
?thread_owns_anything@Owned_gtids@@QEBA_NI@Z
?get_hash@Owned_gtids@@AEBAPEAUst_hash@@H@Z
??0Gtid_iterator@Owned_gtids@@QEAA@PEBV1@@Z
?next@Gtid_iterator@Owned_gtids@@QEAAXXZ
?is_executed@Gtid_state@@QEBA_NAEBUGtid@@@Z
?acquire_anonymous_ownership@Gtid_state@@QEAAXXZ
?dbug_print@Gtid_specification@@QEBAXPEBD_N@Z
?gtid_pre_statement_checks@@YA?AW4enum_gtid_statement_status@@PEAVTHD@@@Z
?gtid_pre_statement_post_implicit_commit_checks@@YA_NPEAVTHD@@@Z
?set_gtid_next@@YA_NPEAVTHD@@AEBUGtid_specification@@@Z
?gtid_set_performance_schema_values@@YAXPEBVTHD@@@Z
?gtid_reacquire_ownership_if_anonymous@@YA_NPEAVTHD@@@Z
??0Owned_gtids@@QEAA@PEAVCheckable_rwlock@@@Z
??1Owned_gtids@@QEAA@XZ
?add_gtid_owner@Owned_gtids@@QEAA?AW4enum_return_status@@AEBUGtid@@I@Z
?get_gtids@Owned_gtids@@QEBAXAEAVGtid_set@@@Z
?remove_gtid@Owned_gtids@@QEAAXAEBUGtid@@I@Z
?ensure_sidno@Owned_gtids@@QEAA?AW4enum_return_status@@H@Z
?is_intersection_nonempty@Owned_gtids@@QEBA_NPEBVGtid_set@@@Z
?is_owned_by@Owned_gtids@@QEBA_NAEBUGtid@@I@Z
?contains_gtid@Owned_gtids@@AEBA_NAEBUGtid@@@Z
??1?$Prealloced_array@PEAUst_hash@@$07$00@@QEAA@XZ
?reserve@?$Prealloced_array@PEAUst_hash@@$07$00@@QEAA_N_K@Z
?push_back@?$Prealloced_array@PEAUst_hash@@$07$00@@QEAA_NAEBQEAUst_hash@@@Z
?key_memory_Gtid_state_group_commit_sidno@@3IA DATA
?assert_some_rdlock@Checkable_rwlock@@QEBAXXZ
?broadcast@Mutex_cond_array@@QEBAXH@Z
?wait@Mutex_cond_array@@QEBA_NPEBVTHD@@HPEAUtimespec@@@Z
?contains_sidno@Gtid_set@@QEBA_NH@Z
?add_interval_memory@Gtid_set@@QEAAXHPEAUInterval@1@@Z
??0?$Interval_iterator_base@PEBVGtid_set@@PEBUInterval@1@@Gtid_set@@QEAA@PEBV1@H@Z
?next@?$Interval_iterator_base@PEBVGtid_set@@PEBUInterval@1@@Gtid_set@@QEAAXXZ
?is_empty@Owned_gtids@@QEBA_NXZ
?init@Gtid_state@@QEAAHXZ
?clear@Gtid_state@@QEAAHPEAVTHD@@@Z
?acquire_ownership@Gtid_state@@QEAA?AW4enum_return_status@@PEAVTHD@@AEBUGtid@@@Z
?update_commit_group@Gtid_state@@QEAAXPEAVTHD@@@Z
?update_on_commit@Gtid_state@@QEAAXPEAVTHD@@@Z
?update_on_rollback@Gtid_state@@QEAAXPEAVTHD@@@Z
?release_anonymous_ownership@Gtid_state@@QEAAXXZ
?end_automatic_gtid_violating_transaction@Gtid_state@@QEAAXXZ
?end_anonymous_gtid_violating_transaction@Gtid_state@@QEAAXXZ
?end_gtid_violating_transaction@Gtid_state@@QEAAXPEAVTHD@@@Z
?get_automatic_gno@Gtid_state@@AEBA_JH@Z
?get_last_executed_gno@Gtid_state@@QEBA_JH@Z
?generate_automatic_gtid@Gtid_state@@QEAA?AW4enum_return_status@@PEAVTHD@@H_JPEAH@Z
?wait_for_sidno@Gtid_state@@QEAA_NPEAVTHD@@HPEAUtimespec@@@Z
?wait_for_gtid@Gtid_state@@QEAA_NPEAVTHD@@AEBUGtid@@PEAUtimespec@@@Z
?wait_for_gtid_set@Gtid_state@@QEAA_NPEAVTHD@@PEAVGtid_set@@N@Z
?lock_sidnos@Gtid_state@@QEAAXPEBVGtid_set@@@Z
?unlock_sidnos@Gtid_state@@QEAAXPEBVGtid_set@@@Z
?broadcast_sidnos@Gtid_state@@QEAAXPEBVGtid_set@@@Z
?ensure_sidno@Gtid_state@@QEAA?AW4enum_return_status@@XZ
?add_lost_gtids@Gtid_state@@QEAA?AW4enum_return_status@@PEBVGtid_set@@@Z
?save@Gtid_state@@QEAAHPEAVTHD@@@Z
?save@Gtid_state@@QEAAHPEBVGtid_set@@@Z
?save_gtids_of_last_binlog_into_table@Gtid_state@@QEAAH_N@Z
?read_gtid_executed_from_table@Gtid_state@@QEAAHXZ
?compress@Gtid_state@@QEAAHPEAVTHD@@@Z
?warn_or_err_on_modify_gtid_table@Gtid_state@@QEAAHPEAVTHD@@PEAUTABLE_LIST@@@Z
?update_gtids_impl@Gtid_state@@AEAAXPEAVTHD@@_N@Z
?unlock_owned_sidnos@Gtid_state@@AEAAXPEBVTHD@@@Z
?broadcast_owned_sidnos@Gtid_state@@AEAAXPEBVTHD@@@Z
?update_gtids_impl_check_skip_gtid_rollback@Gtid_state@@AEAA_NPEAVTHD@@@Z
?update_gtids_impl_do_nothing@Gtid_state@@AEAA_NPEAVTHD@@@Z
?update_gtids_impl_begin@Gtid_state@@AEAA_NPEAVTHD@@@Z
?update_gtids_impl_own_gtid_set@Gtid_state@@AEAAXPEAVTHD@@_N@Z
?update_gtids_impl_lock_sidno@Gtid_state@@AEAAXH@Z
?update_gtids_impl_lock_sidnos@Gtid_state@@AEAAXPEAVTHD@@@Z
?update_gtids_impl_own_gtid@Gtid_state@@AEAAXPEAVTHD@@_N@Z
?update_gtids_impl_broadcast_and_unlock_sidno@Gtid_state@@AEAAXH@Z
?update_gtids_impl_broadcast_and_unlock_sidnos@Gtid_state@@AEAAXXZ
?update_gtids_impl_own_anonymous@Gtid_state@@AEAAXPEAVTHD@@PEA_N@Z
?update_gtids_impl_own_nothing@Gtid_state@@AEAAXPEAVTHD@@@Z
?update_gtids_impl_end@Gtid_state@@AEAAXPEAVTHD@@_N@Z
?reserve@?$Prealloced_array@_N$07$00@@QEAA_N_K@Z
?push_back@?$Prealloced_array@_N$07$00@@QEAA_NAEB_N@Z
?ensure_commit_group_sidnos@Gtid_state@@AEAA?AW4enum_return_status@@H@Z
?clear_owned_gtids@THD@@QEAAXXZ
?warn_or_err_on_explicit_modification@Gtid_table_persistor@@QEAAHPEAVTHD@@PEAUTABLE_LIST@@@Z
?parse@Gtid_specification@@QEAA?AW4enum_return_status@@PEAVSid_map@@PEBD@Z
?is_valid@Gtid_specification@@SA_NPEBD@Z
?to_string@Gtid_specification@@QEBAHPEBVSid_map@@PEAD_N@Z
?to_string@Gtid_specification@@QEBAHPEBUUuid@binary_log@@PEAD@Z
?key_memory_Gtid_set_to_string@@3IA DATA
?key_memory_Gtid_set_Interval_chunk@@3IA DATA
?default_string_format@Gtid_set@@2UString_format@1@B DATA
?sql_string_format@Gtid_set@@2UString_format@1@B DATA
?commented_string_format@Gtid_set@@2UString_format@1@B DATA
?parse_gno@@YA_JPEAPEBD@Z
?format_gno@@YAHPEAD_J@Z
?sid_to_sidno@Sid_map@@QEBAHAEBUUuid@binary_log@@@Z
?get_sorted_sidno@Sid_map@@QEBAHH@Z
??0Gtid_set@@QEAA@PEAVSid_map@@PEAVCheckable_rwlock@@@Z
??0Gtid_set@@QEAA@PEAVSid_map@@PEBDPEAW4enum_return_status@@PEAVCheckable_rwlock@@@Z
?init@Gtid_set@@AEAAXXZ
??1Gtid_set@@QEAA@XZ
?clear@Gtid_set@@QEAAXXZ
?add_gtid_set@Gtid_set@@QEAA?AW4enum_return_status@@PEBV1@@Z
?remove_gtid_set@Gtid_set@@QEAAXPEBV1@@Z
?remove_intervals_for_sidno@Gtid_set@@QEAAXPEAV1@H@Z
?add_gtid_text@Gtid_set@@QEAA?AW4enum_return_status@@PEBDPEA_N@Z
?add_gtid_encoding@Gtid_set@@QEAA?AW4enum_return_status@@PEBE_KPEA_K@Z
?contains_gtid@Gtid_set@@QEBA_NH_J@Z
?get_last_gno@Gtid_set@@QEBA_JH@Z
?ensure_sidno@Gtid_set@@QEAA?AW4enum_return_status@@H@Z
?is_subset@Gtid_set@@QEBA_NPEBV1@@Z
?is_subset_for_sid@Gtid_set@@QEBA_NPEBV1@HH@Z
?is_intersection_nonempty@Gtid_set@@QEBA_NPEBV1@@Z
?intersection@Gtid_set@@QEAA?AW4enum_return_status@@PEBV1@PEAV1@@Z
?is_valid@Gtid_set@@SA_NPEBD@Z
?get_string_length@Gtid_set@@QEBA_KPEBUString_format@1@@Z
?to_string@Gtid_set@@QEBA_KPEAD_NPEBUString_format@1@@Z
?to_string@Gtid_set@@QEBAJPEAPEAD_NPEBUString_format@1@@Z
?get_gtid_intervals@Gtid_set@@QEBAXPEAV?$list@UGtid_interval@@V?$allocator@UGtid_interval@@@std@@@std@@@Z
?next@?$Interval_iterator_base@PEAVGtid_set@@PEAUInterval@1@@Gtid_set@@QEAAXXZ
?remove@Interval_iterator@Gtid_set@@AEAAXPEAV2@@Z
?encode@Gtid_set@@QEBAXPEAE@Z
?get_encoded_length@Gtid_set@@QEBA_KXZ
?sidno_equals@Gtid_set@@AEBA_NHPEBV1@H@Z
?equals@Gtid_set@@AEBA_NPEBV1@@Z
?get_n_intervals@Gtid_set@@AEBAHH@Z
?create_new_chunk@Gtid_set@@AEAAXH@Z
?get_free_interval@Gtid_set@@AEAAXPEAPEAUInterval@1@@Z
?put_free_interval@Gtid_set@@AEAAXPEAUInterval@1@@Z
?add_interval_memory_lock_taken@Gtid_set@@AEAAXHPEAUInterval@1@@Z
?lock_if_not_locked@Free_intervals_lock@Gtid_set@@QEAAXXZ
?add_gno_interval@Gtid_set@@AEAAXPEAVInterval_iterator@1@_J1PEAVFree_intervals_lock@1@@Z
?remove_gno_interval@Gtid_set@@AEAAXPEAVInterval_iterator@1@_J1PEAVFree_intervals_lock@1@@Z
?add_gno_intervals@Gtid_set@@AEAAXHVConst_interval_iterator@1@PEAVFree_intervals_lock@1@@Z
?remove_gno_intervals@Gtid_set@@AEAAXHVConst_interval_iterator@1@PEAVFree_intervals_lock@1@@Z
?is_interval_subset@Gtid_set@@CA_NPEAVConst_interval_iterator@1@0@Z
?is_interval_intersection_nonempty@Gtid_set@@CA_NPEAVConst_interval_iterator@1@0@Z
??1?$Prealloced_array@PEAUInterval@Gtid_set@@$07$00@@QEAA@XZ
?reserve@?$Prealloced_array@PEAUInterval@Gtid_set@@$07$00@@QEAA_N_K@Z
?push_back@?$Prealloced_array@PEAUInterval@Gtid_set@@$07$00@@QEAA_NAEBQEAUInterval@Gtid_set@@@Z
??$_Emplace@AEBUGtid_interval@@@?$list@UGtid_interval@@V?$allocator@UGtid_interval@@@std@@@std@@QEAAPEAU?$_List_node@UGtid_interval@@PEAX@1@QEAU21@AEBUGtid_interval@@@Z
?_Allocate@?$_Alloc_construct_ptr@V?$allocator@U?$_List_node@UGtid_interval@@PEAX@std@@@std@@@std@@QEAAXXZ
??1?$_Alloc_construct_ptr@V?$allocator@U?$_List_node@UGtid_interval@@PEAX@std@@@std@@@std@@QEAA@XZ
??1?$_List_node_emplace_op2@V?$allocator@U?$_List_node@UGtid_interval@@PEAX@std@@@std@@@std@@QEAA@XZ
?_Transfer_before@?$_List_node_emplace_op2@V?$allocator@U?$_List_node@UGtid_interval@@PEAX@std@@@std@@@std@@QEAAPEAU?$_List_node@UGtid_interval@@PEAX@2@QEAU32@@Z
??$_Construct_in_place@PEAU?$_List_node@UGtid_interval@@PEAX@std@@AEBQEAU12@@std@@YAXAEAPEAU?$_List_node@UGtid_interval@@PEAX@0@AEBQEAU10@@Z
key_memory_Sid_map_Node DATA
??0Sid_map@@QEAA@PEAVCheckable_rwlock@@@Z
??1Sid_map@@QEAA@XZ
?add_sid@Sid_map@@QEAAHAEBUUuid@binary_log@@@Z
?copy@Sid_map@@QEAA?AW4enum_return_status@@PEAV1@@Z
?add_node@Sid_map@@AEAA?AW4enum_return_status@@HAEBUUuid@binary_log@@@Z
??1?$Prealloced_array@PEAUNode@Sid_map@@$07$00@@QEAA@XZ
?back@?$Prealloced_array@PEAUNode@Sid_map@@$07$00@@QEAAAEAPEAUNode@Sid_map@@XZ
?reserve@?$Prealloced_array@PEAUNode@Sid_map@@$07$00@@QEAA_N_K@Z
?push_back@?$Prealloced_array@PEAUNode@Sid_map@@$07$00@@QEAA_NAEBQEAUNode@Sid_map@@@Z
?pop_back@?$Prealloced_array@PEAUNode@Sid_map@@$07$00@@QEAAXXZ
??1?$Prealloced_array@H$07$00@@QEAA@XZ
?back@?$Prealloced_array@H$07$00@@QEAAAEAHXZ
?reserve@?$Prealloced_array@H$07$00@@QEAA_N_K@Z
?push_back@?$Prealloced_array@H$07$00@@QEAA_NAEBH@Z
?pop_back@?$Prealloced_array@H$07$00@@QEAAXXZ
?_gtid_mode@@3KA DATA
?gtid_mode_names@@3PAPEBDA DATA
?gtid_mode_typelib@@3Ust_typelib@@A DATA
?gtid_consistency_mode_names@@3PAPEBDA DATA
?_gtid_consistency_mode@@3KA DATA
?gtid_mode_lock@@3PEAVCheckable_rwlock@@EA DATA
?gtid_consistency_mode_typelib@@3Ust_typelib@@A DATA
?check_return_status@@YAXW4enum_return_status@@PEBD1H@Z
?get_gtid_mode@@YA?AW4enum_gtid_mode@@W4enum_gtid_mode_lock@@@Z
?get_gtid_consistency_mode@@YA?AW4enum_gtid_consistency_mode@@XZ
?is_valid@Gtid@@SA_NPEBD@Z
?to_string@Gtid@@QEBAHAEBUUuid@binary_log@@PEAD@Z
?to_string@Gtid@@QEBAHPEBVSid_map@@PEAD_N@Z
?parse@Gtid@@QEAA?AW4enum_return_status@@PEAVSid_map@@PEBD@Z
?get_sidno_from_global_sid_map@@YAHUUuid@binary_log@@@Z
?get_last_executed_gno@@YA_JH@Z
?bytes_per_section@Uuid@binary_log@@2QBHB DATA
?hex_to_byte@Uuid@binary_log@@2QBHB DATA
?is_valid@Uuid@binary_log@@SA_NPEBD@Z
?parse@Uuid@binary_log@@QEAAHPEBD@Z
?to_string@Uuid@binary_log@@QEBA_KPEAD@Z
?to_string@Uuid@binary_log@@SA_KPEBEPEAD@Z
my_time_binary_length
my_datetime_binary_length
my_timestamp_binary_length
calc_field_size
max_display_length_for_field
decimal_binary_size
?debug_checksum_test@binary_log_debug@@3_NA DATA
?debug_query_mts_corrupt_db_names@binary_log_debug@@3_NA DATA
?debug_simulate_invalid_address@binary_log_debug@@3_NA DATA
?debug_pretend_version_50034_in_binlog@binary_log_debug@@3_NA DATA
?checksum_version_split@@3QBEB DATA
?do_server_version_split@@YAXPEBDQEAE@Z
?version_product@@YAKPEBE@Z
?get_checksum_alg@Log_event_footer@binary_log@@SA?AW4enum_binlog_checksum_alg@2@PEBDK@Z
?event_checksum_test@Log_event_footer@binary_log@@SA_NPEAEKW4enum_binlog_checksum_alg@2@@Z
??0Log_event_header@binary_log@@QEAA@PEBDG@Z
??0Binary_log_event@binary_log@@IEAA@PEAPEBDGPEBD@Z
??1Binary_log_event@binary_log@@UEAA@XZ
??0Unknown_event@binary_log@@QEAA@PEBDPEBVFormat_description_event@1@@Z
?checksum_version_product@@3KB DATA
?_Copy_assign@?$vector@EV?$allocator@E@std@@@std@@AEAAXAEBV12@U?$integral_constant@_N$0A@@2@@Z
?_Reallocate_exactly@?$vector@EV?$allocator@E@std@@@std@@AEAAX_K@Z
?_Clear_and_reserve_geometric@?$vector@EV?$allocator@E@std@@@std@@AEAAX_K@Z
?reserve@?$vector@EV?$allocator@E@std@@@std@@QEAAX_K@Z
?clear@?$vector@EV?$allocator@E@std@@@std@@QEAAXXZ
??0?$_Vector_val@U?$_Simple_types@E@std@@@std@@QEAA@XZ
??0Table_map_event@binary_log@@QEAA@PEBDIPEBVFormat_description_event@1@@Z
??1Table_map_event@binary_log@@UEAA@XZ
??0Rows_event@binary_log@@QEAA@PEBDIPEBVFormat_description_event@1@@Z
??1Rows_event@binary_log@@UEAA@XZ
??0Rows_query_event@binary_log@@QEAA@PEBDIPEBVFormat_description_event@1@@Z
??1Rows_query_event@binary_log@@UEAA@XZ
?get_field_length@binary_log@@YAKPEAPEAE@Z
??$emplace_back@AEBE@?$vector@EV?$allocator@E@std@@@std@@QEAAXAEBE@Z
??$_Emplace_back_with_unused_capacity@AEBE@?$vector@EV?$allocator@E@std@@@std@@AEAAXAEBE@Z
??$_Emplace_reallocate@AEBE@?$vector@EV?$allocator@E@std@@@std@@QEAAPEAEQEAEAEBE@Z
??$_Pocca@V?$allocator@E@std@@@std@@YAXAEAV?$allocator@E@0@AEBV10@@Z
??$_Assign_range@PEBE@?$vector@EV?$allocator@E@std@@@std@@AEAAXPEBE0Uforward_iterator_tag@1@@Z
??$_Assign_range@PEAE@?$vector@EV?$allocator@E@std@@@std@@AEAAXPEAE0Uforward_iterator_tag@1@@Z
??$_Verify_range@E@std@@YAXQEBE0@Z
??$_Copy_memmove@PEBEPEAE@std@@YAPEAEPEBE0PEAE@Z
??$_Refancy@PEAE$0A@@std@@YAPEAEPEAE@Z
?init@sql_ex_data_info@binary_log@@QEAAPEBDPEBD0_N@Z
??0Execute_load_query_event@binary_log@@QEAA@IIIW4enum_load_dup_handling@1@@Z
??0Execute_load_query_event@binary_log@@QEAA@PEBDIPEBVFormat_description_event@1@@Z
?copy_load_event@Load_event@binary_log@@IEAAHPEBDKHPEBVFormat_description_event@2@@Z
??0Load_event@binary_log@@QEAA@PEBDIPEBVFormat_description_event@1@@Z
?get_data_size@Load_event@binary_log@@QEAA_KXZ
??0Create_file_event@binary_log@@QEAA@PEBDIPEBVFormat_description_event@1@@Z
??0Delete_file_event@binary_log@@QEAA@PEBDIPEBVFormat_description_event@1@@Z
??0Execute_load_event@binary_log@@IEAA@IPEBD@Z
??0Execute_load_event@binary_log@@QEAA@PEBDIPEBVFormat_description_event@1@@Z
??0Append_block_event@binary_log@@QEAA@PEBDIPEBVFormat_description_event@1@@Z
??0Begin_load_query_event@binary_log@@QEAA@PEBDIPEBVFormat_description_event@1@@Z
??_8Execute_load_query_event@binary_log@@7B@ DATA
??_8Create_file_event@binary_log@@7B@ DATA
??0Rotate_event@binary_log@@QEAA@PEBDIPEBVFormat_description_event@1@@Z
??0Start_event_v3@binary_log@@IEAA@W4Log_event_type@1@@Z
??0Start_event_v3@binary_log@@QEAA@PEBDIPEBVFormat_description_event@1@@Z
??0?$vector@EV?$allocator@E@std@@@std@@QEAA@XZ
?begin@?$vector@EV?$allocator@E@std@@@std@@QEAA?AV?$_Vector_iterator@V?$_Vector_val@U?$_Simple_types@E@std@@@std@@@2@XZ
?_Umove@?$vector@EV?$allocator@E@std@@@std@@AEAAPEAEPEAE00@Z
??0Format_description_event@binary_log@@QEAA@EPEBD@Z
??0Format_description_event@binary_log@@QEAA@PEBDIPEBV01@@Z
?get_product_version@Format_description_event@binary_log@@QEBAKXZ
?is_version_before_checksum@Format_description_event@binary_log@@QEBA_NXZ
?calc_server_version_split@Format_description_event@binary_log@@QEAAXXZ
??1Format_description_event@binary_log@@UEAA@XZ
??0Incident_event@binary_log@@QEAA@PEBDIPEBVFormat_description_event@1@@Z
??0Xid_event@binary_log@@QEAA@PEBDPEBVFormat_description_event@1@@Z
??0XA_prepare_event@binary_log@@QEAA@PEBDPEBVFormat_description_event@1@@Z
??0Ignorable_event@binary_log@@QEAA@PEBDPEBVFormat_description_event@1@@Z
??0Gtid_event@binary_log@@QEAA@PEBDIPEBVFormat_description_event@1@@Z
??0Previous_gtids_event@binary_log@@QEAA@PEBDIPEBVFormat_description_event@1@@Z
??0Transaction_context_event@binary_log@@QEAA@PEBDIPEBVFormat_description_event@1@@Z
??1Transaction_context_event@binary_log@@UEAA@XZ
?read_data_set@Transaction_context_event@binary_log@@SAPEBDPEBDIPEAV?$list@PEBDV?$allocator@PEBD@std@@@std@@I@Z
?clear_set@Transaction_context_event@binary_log@@SAXPEAV?$list@PEBDV?$allocator@PEBD@std@@@std@@@Z
?clear@?$list@PEBDV?$allocator@PEBD@std@@@std@@QEAAXXZ
?_Orphan_non_end@?$_List_val@U?$_List_simple_types@PEBD@std@@@std@@QEAAXXZ
??0View_change_event@binary_log@@QEAA@PEBDIPEBVFormat_description_event@1@@Z
??0View_change_event@binary_log@@QEAA@PEAD@Z
??1View_change_event@binary_log@@UEAA@XZ
?read_data_map@View_change_event@binary_log@@SAPEADPEADIPEAV?$map@V?$basic_string@DU?$char_traits@D@std@@V?$allocator@D@2@@std@@V12@U?$less@V?$basic_string@DU?$char_traits@D@std@@V?$allocator@D@2@@std@@@2@V?$allocator@U?$pair@$$CBV?$basic_string@DU?$char_traits@D@std@@V?$allocator@D@2@@std@@V12@@std@@@2@@std@@I@Z
??0?$_Tree@V?$_Tmap_traits@V?$basic_string@DU?$char_traits@D@std@@V?$allocator@D@2@@std@@V12@U?$less@V?$basic_string@DU?$char_traits@D@std@@V?$allocator@D@2@@std@@@2@V?$allocator@U?$pair@$$CBV?$basic_string@DU?$char_traits@D@std@@V?$allocator@D@2@@std@@V12@@std@@@2@$0A@@std@@@std@@QEAA@AEBU?$less@V?$basic_string@DU?$char_traits@D@std@@V?$allocator@D@2@@std@@@1@@Z
??1?$_Tree@V?$_Tmap_traits@V?$basic_string@DU?$char_traits@D@std@@V?$allocator@D@2@@std@@V12@U?$less@V?$basic_string@DU?$char_traits@D@std@@V?$allocator@D@2@@std@@@2@V?$allocator@U?$pair@$$CBV?$basic_string@DU?$char_traits@D@std@@V?$allocator@D@2@@std@@V12@@std@@@2@$0A@@std@@@std@@QEAA@XZ
?_Alloc_sentinel_and_proxy@?$_Tree@V?$_Tmap_traits@V?$basic_string@DU?$char_traits@D@std@@V?$allocator@D@2@@std@@V12@U?$less@V?$basic_string@DU?$char_traits@D@std@@V?$allocator@D@2@@std@@@2@V?$allocator@U?$pair@$$CBV?$basic_string@DU?$char_traits@D@std@@V?$allocator@D@2@@std@@V12@@std@@@2@$0A@@std@@@std@@IEAAXXZ
??1?$map@V?$basic_string@DU?$char_traits@D@std@@V?$allocator@D@2@@std@@V12@U?$less@V?$basic_string@DU?$char_traits@D@std@@V?$allocator@D@2@@std@@@2@V?$allocator@U?$pair@$$CBV?$basic_string@DU?$char_traits@D@std@@V?$allocator@D@2@@std@@V12@@std@@@2@@std@@QEAA@XZ
??0Heartbeat_event@binary_log@@QEAA@PEBDIPEBVFormat_description_event@1@@Z
??0?$_Vector_const_iterator@V?$_Vector_val@U?$_Simple_types@E@std@@@std@@@std@@QEAA@PEAEPEBU_Container_base12@1@@Z
??1?$_Vector_const_iterator@V?$_Vector_val@U?$_Simple_types@E@std@@@std@@@std@@QEAA@XZ
??1?$_Vector_iterator@V?$_Vector_val@U?$_Simple_types@E@std@@@std@@@std@@QEAA@XZ
??$insert@PEAE$0A@@?$vector@EV?$allocator@E@std@@@std@@QEAA?AV?$_Vector_iterator@V?$_Vector_val@U?$_Simple_types@E@std@@@std@@@1@V?$_Vector_const_iterator@V?$_Vector_val@U?$_Simple_types@E@std@@@std@@@1@PEAE1@Z
??$insert@PEBE$0A@@?$vector@EV?$allocator@E@std@@@std@@QEAA?AV?$_Vector_iterator@V?$_Vector_val@U?$_Simple_types@E@std@@@std@@@1@V?$_Vector_const_iterator@V?$_Vector_val@U?$_Simple_types@E@std@@@std@@@1@PEBE1@Z
??$_Erase_head@V?$allocator@U?$_Tree_node@U?$pair@$$CBV?$basic_string@DU?$char_traits@D@std@@V?$allocator@D@2@@std@@V12@@std@@PEAX@std@@@std@@@?$_Tree_val@U?$_Tree_simple_types@U?$pair@$$CBV?$basic_string@DU?$char_traits@D@std@@V?$allocator@D@2@@std@@V12@@std@@@std@@@std@@QEAAXAEAV?$allocator@U?$_Tree_node@U?$pair@$$CBV?$basic_string@DU?$char_traits@D@std@@V?$allocator@D@2@@std@@V12@@std@@PEAX@std@@@1@@Z
??$_Buyheadnode@V?$allocator@U?$_Tree_node@U?$pair@$$CBV?$basic_string@DU?$char_traits@D@std@@V?$allocator@D@2@@std@@V12@@std@@PEAX@std@@@std@@@?$_Tree_node@U?$pair@$$CBV?$basic_string@DU?$char_traits@D@std@@V?$allocator@D@2@@std@@V12@@std@@PEAX@std@@SAPEAU01@AEAV?$allocator@U?$_Tree_node@U?$pair@$$CBV?$basic_string@DU?$char_traits@D@std@@V?$allocator@D@2@@std@@V12@@std@@PEAX@std@@@1@@Z
??$_Insert_range@PEAE@?$vector@EV?$allocator@E@std@@@std@@AEAAXV?$_Vector_const_iterator@V?$_Vector_val@U?$_Simple_types@E@std@@@std@@@1@PEAE1Uforward_iterator_tag@1@@Z
??$_Insert_range@PEBE@?$vector@EV?$allocator@E@std@@@std@@AEAAXV?$_Vector_const_iterator@V?$_Vector_val@U?$_Simple_types@E@std@@@std@@@1@PEBE1Uforward_iterator_tag@1@@Z
??$_Construct_in_place@PEAU?$_Tree_node@U?$pair@$$CBV?$basic_string@DU?$char_traits@D@std@@V?$allocator@D@2@@std@@V12@@std@@PEAX@std@@AEBQEAU12@@std@@YAXAEAPEAU?$_Tree_node@U?$pair@$$CBV?$basic_string@DU?$char_traits@D@std@@V?$allocator@D@2@@std@@V12@@std@@PEAX@0@AEBQEAU10@@Z
??$_Move_unchecked@PEAEPEAE@std@@YAPEAEPEAE00@Z
??$_Uninitialized_copy@PEAEV?$allocator@E@std@@@std@@YAPEAEQEAE0PEAEAEAV?$allocator@E@0@@Z
??$_Copy_backward_memmove@PEAEPEAE@std@@YAPEAEPEAE00@Z
??$_Uninitialized_copy@PEBEV?$allocator@E@std@@@std@@YAPEAEQEBE0PEAEAEAV?$allocator@E@0@@Z
??_8Format_description_event@binary_log@@7B@ DATA
?fill_data_buf@Query_event@binary_log@@IEAAHPEAEK@Z
??0Query_event@binary_log@@QEAA@PEBD00IK_KKKI1HII@Z
??0Query_event@binary_log@@QEAA@PEBDIPEBVFormat_description_event@1@W4Log_event_type@1@@Z
??0Query_event@binary_log@@QEAA@W4Log_event_type@1@@Z
??0User_var_event@binary_log@@QEAA@PEBDIPEBVFormat_description_event@1@@Z
??0Intvar_event@binary_log@@QEAA@PEBDPEBVFormat_description_event@1@@Z
??0Rand_event@binary_log@@QEAA@PEBDPEBVFormat_description_event@1@@Z
??$valid_buffer_range@I@binary_log@@YA_NIPEBD0I@Z
??$available_buffer@I@binary_log@@YAIPEBD0I@Z
_dbug_on_ DATA
fprintf
_db_keyword_
_db_explain_
_db_explain_init_
_db_is_pushed_
_db_setjmp_
_db_longjmp_
_db_process_
_db_push_
_db_pop_
_db_set_
_db_set_init_
_db_enter_
_db_return_
_db_pargs_
_db_enabled_
_db_doprnt_
_db_doputs_
_db_dump_
_db_end_
_db_lock_file_
_db_unlock_file_
_db_fp_
_db_flush_
_db_get_func_
DbugParse
FixTraceFlags_helper
FixTraceFlags
io_compl_port DATA
timer_queue DATA
my_timer_initialize
my_timer_deinitialize
my_timer_create
my_timer_set
my_timer_cancel
my_timer_delete
my_get_osfhandle
my_win_open
my_win_close
my_win_read
my_win_write
my_win_pread
my_win_pwrite
my_win_lseek
my_win_chsize
my_win_fopen
my_win_fclose
my_win_fileno
my_win_fdopen
my_win_stat
my_win_fstat
my_win_fsync
my_win_dup
my_win_sopen
my_open_osfhandle
my_osmaperr
my_security_attr_create
my_security_attr_free
my_win_is_console
my_win_console_readline
my_win_console_write
my_win_console_fputs
my_win_console_putc
my_win_console_vfprintf
my_win_translate_command_line_args
my_thread_once
my_thread_create
my_thread_join
my_thread_cancel
my_thread_exit
get_file_perm
my_chmod
registry_prefix DATA
my_openlog
my_closelog
my_syslog
PSI_server DATA
PSI_hook DATA
destroy_prepared_stmt_noop
reprepare_prepared_stmt_noop
set_psi_server
my_timer_cycles
my_timer_nanoseconds
my_timer_microseconds
my_timer_milliseconds
my_timer_ticks
my_timer_init
LF_HASH_OVERHEAD DATA
lf_hash_init2
lf_hash_destroy
lf_hash_insert
lf_hash_search
lf_hash_delete
lf_hash_random_match
lf_dynarray_init
lf_dynarray_destroy
lf_dynarray_value
lf_dynarray_lvalue
lf_dynarray_iterate
lf_pinbox_init
lf_pinbox_destroy
lf_pinbox_get_pins
lf_pinbox_put_pins
lf_pinbox_free
lf_alloc_init2
lf_alloc_destroy
lf_alloc_pool_count
lf_alloc_new
my_memmem
base64_needed_encoded_length
base64_encode_max_arg_length
base64_needed_decoded_length
base64_decode_max_arg_length
base64_encode
base64_decode
find_typeset
find_type_or_exit
find_type
make_type
get_type
copy_typelib
find_set_from_flags
printf
init_tree
delete_tree
reset_tree
tree_insert
tree_search
tree_walk
tree_delete
tree_search_key
tree_search_edge
tree_search_next
tree_record_pos
rw_pr_init
rw_pr_rdlock
rw_pr_wrlock
rw_pr_unlock
rw_pr_destroy
safe_mutex_global_init
safe_mutex_init
safe_mutex_lock
safe_mutex_unlock
safe_mutex_destroy
locks_immediate DATA
locks_waited DATA
max_write_lock_count DATA
thr_upgraded_concurrent_insert_lock DATA
thr_lock_info_init
thr_lock_init
thr_lock_delete
thr_lock_data_init
thr_lock
thr_unlock
thr_multi_lock
thr_multi_unlock
thr_lock_merge_status
thr_abort_locks
thr_abort_locks_for_thread
thr_print_locks
thr_downgrade_write_lock
thr_set_lock_wait_callback
safe_cond_wait
safe_cond_timedwait
init_dynamic_string
dynstr_append
dynstr_append_mem
dynstr_append_os_quoted
dynstr_set
dynstr_realloc
dynstr_trunc
dynstr_free
my_init_stacktrace
my_print_stacktrace
my_safe_puts_stderr
my_set_exception_pointers
my_create_minidump
my_write_core
my_safe_itoa
my_safe_utoa
my_safe_snprintf
my_safe_printf_stderr
my_write_stderr
my_safe_print_system_time
init_state_maps
_downheap
queue_fix
init_queue
init_queue_ex
reinit_queue
delete_queue
queue_insert
queue_remove
resize_queue
my_store_ptr
my_get_ptr
my_write
THR_LOCK_malloc DATA
THR_LOCK_open DATA
THR_LOCK_lock DATA
THR_LOCK_net DATA
THR_LOCK_charset DATA
THR_LOCK_myisam DATA
THR_LOCK_heap DATA
THR_LOCK_myisam_mmap DATA
THR_LOCK_threads DATA
THR_COND_threads DATA
my_thread_global_init
my_thread_global_reinit
my_thread_global_end
my_thread_init
my_thread_end
my_errno
set_my_errno
thr_winerr
set_thr_winerr
my_thread_var_dbug
my_thread_var_id
set_my_thread_var_id
thr_set_sync_wait_callback
my_sync
my_sync_dir
my_sync_dir_by_file
my_create_with_symlink
my_delete_with_symlink
my_rename_with_symlink
my_readlink
my_is_symlink
my_realpath
my_is_same_file
my_symlink
key_memory_max_alloca DATA
home_dir DATA
my_progname DATA
curr_dir DATA
error_handler_hook DATA
fatal_error_handler_hook DATA
local_message_hook DATA
my_file_limit DATA
enter_cond_hook DATA
exit_cond_hook DATA
is_killed_hook DATA
my_file_opened DATA
my_stream_opened DATA
my_tmp_file_created DATA
my_file_total_opened DATA
my_umask DATA
my_umask_dir DATA
my_default_record_cache_size DATA
my_disable_locking DATA
my_enable_symlinks DATA
my_file_info DATA
key_memory_charset_file DATA
key_memory_charset_loader DATA
key_memory_lf_node DATA
key_memory_lf_dynarray DATA
key_memory_lf_slist DATA
key_memory_LIST DATA
key_memory_IO_CACHE DATA
key_memory_KEY_CACHE DATA
key_memory_SAFE_HASH_ENTRY DATA
key_memory_MY_TMPDIR_full_list DATA
key_memory_MY_BITMAP_bitmap DATA
key_memory_my_compress_alloc DATA
key_memory_pack_frm DATA
key_memory_my_err_head DATA
key_memory_my_file_info DATA
key_memory_MY_DIR DATA
key_memory_MY_STAT DATA
key_memory_QUEUE DATA
key_memory_DYNAMIC_STRING DATA
key_memory_TREE DATA
key_memory_win_SECURITY_ATTRIBUTES DATA
key_memory_win_PACL DATA
key_memory_win_IP_ADAPTER_ADDRESSES DATA
home_dir_buff DATA
soundex_map DATA
my_once_root_block DATA
my_once_extra DATA
my_file_info_default DATA
my_seek
my_tell
my_rename
my_redel
my_copystat
my_read
my_pread
my_pwrite
my_open
my_register_filename
my_close
my_once_alloc
my_once_free
my_once_strdup
my_once_memdup
my_mmap
my_munmap
my_msync
my_mkdir
my_message_stderr
my_malloc
my_realloc
my_claim
my_free
my_memdup
my_strdup
my_strndup
my_lock
my_dir
my_dirend
my_stat
my_fstat
key_file_cnf DATA
all_mysys_stages DATA
my_thread_stack_size DATA
my_init_done DATA
have_tcpip DATA
mysql_stdin DATA
key_BITMAP_mutex DATA
key_IO_CACHE_append_buffer_lock DATA
key_IO_CACHE_SHARE_mutex DATA
key_KEY_CACHE_cache_lock DATA
key_THR_LOCK_charset DATA
key_THR_LOCK_heap DATA
key_THR_LOCK_lock DATA
key_THR_LOCK_malloc DATA
key_THR_LOCK_mutex DATA
key_THR_LOCK_myisam DATA
key_THR_LOCK_net DATA
key_THR_LOCK_open DATA
key_THR_LOCK_threads DATA
key_TMPDIR_mutex DATA
key_THR_LOCK_myisam_mmap DATA
key_SAFE_HASH_lock DATA
key_IO_CACHE_SHARE_cond DATA
key_IO_CACHE_SHARE_cond_writer DATA
key_THR_COND_threads DATA
stage_waiting_for_table_level_lock DATA
key_file_charset DATA
my_init
my_end
my_init_mysys_psi_keys
my_parameter_handler
handle_rtc_failure
ha_compare_text
ha_key_cmp
my_getwd
my_setwd
test_if_hard_path
has_path
my_getsystime
my_time
my_micro_time
win_init_get_system_time_as_file_time
my_gethwaddr
my_fread
my_fwrite
my_fseek
my_ftell
my_fileno
my_fopen
my_fdopen
my_freopen
my_fclose
my_set_max_open_files
my_free_open_file_info
my_strerror
my_get_err_msg
my_error
my_printf_error
my_printv_error
my_error_register
my_error_unregister
my_message
my_message_local_stderr
my_message_local
my_error_unregister_all
my_filename
my_delete
nt_share_delete
my_create
my_copy
my_compress
my_uncompress
my_compress_alloc
packfrm
unpackfrm
my_chsize
create_last_word_mask
bitmap_init
bitmap_is_clear_all
bitmap_is_prefix
bitmap_is_set_all
bitmap_is_subset
bitmap_is_overlapping
bitmap_test_and_set
bitmap_test_and_clear
bitmap_fast_test_and_set
bitmap_set_next
bitmap_get_first
bitmap_get_first_set
bitmap_get_next_set
bitmap_bits_set
bitmap_free
bitmap_set_above
bitmap_set_prefix
bitmap_intersect
bitmap_subtract
bitmap_union
bitmap_xor
bitmap_invert
bitmap_copy
bitmap_lock_set_next
bitmap_lock_clear_bit
bitmap_fast_test_and_clear
_my_bits_nbits DATA
_my_bits_reverse_table DATA
init_alloc_root
alloc_root
multi_alloc_root
claim_root
free_root
reset_root_defaults
strdup_root
strmake_root
memdup_root
set_memroot_max_capacity
set_memroot_error_reporting
my_access
check_if_legal_filename
check_if_legal_tablename
is_filename_allowed
my_multi_malloc
wild_many DATA
wild_one DATA
wild_prefix DATA
wild_compare
to_unix_path
create_temp_file
array_append_string_unique
soundex
fn_same
radixsort_is_appliccable
radixsort_for_str_ptr
my_qsort2
my_qsort
my_path
pack_dirname
normalize_dirname
unpack_dirname
cleanup_dirname
system_filename
unpack_filename
intern_filename
my_load_path
multi_keycache_init
multi_keycache_free
multi_key_cache_search
multi_key_cache_set
multi_key_cache_change
dflt_key_cache DATA
init_key_cache
resize_key_cache
key_cache_read
key_cache_insert
key_cache_write
flush_key_blocks
end_key_cache
reset_key_cache_counters
my_b_copy_to_file
my_b_append_tell
my_b_safe_tell
my_b_fill
my_b_seek
my_b_gets
my_b_filelength
my_b_printf
my_b_vprintf
key_file_io_cache DATA
init_io_cache_ext
init_io_cache
reinit_io_cache
setup_io_cache
_my_b_read
_my_b_read_r
init_io_cache_share
remove_io_thread
_my_b_seq_read
_my_b_get
_my_b_write
my_b_append
my_b_safe_write
my_block_write
my_b_flush_io_cache
end_io_cache
get_date
fn_format
strlength
fn_ext
dirname_part
dirname_length
convert_dirname
open_cached_file
real_open_cached_file
close_cached_file
list_add
list_delete
list_cons
list_reverse
list_free
list_length
list_walk
_my_hash_init
my_hash_claim
my_hash_free
my_hash_reset
my_hash_element
my_hash_search
my_hash_search_using_hash_value
my_calc_hash
my_hash_first
my_hash_first_from_hash_value
my_hash_next
my_hash_insert
my_hash_delete
my_hash_update
my_hash_replace
my_hash_check
globerrs DATA
get_global_errmsg
wait_for_free_space
my_checksum
default_charset_info DATA
all_charsets DATA
charsets_dir DATA
my_charset_error_reporter DATA
my_charset_loader_init_mysys
get_charset_number
get_collation_number
get_charset_name
get_charset
get_charset_by_name
my_collation_get_by_name
get_charset_by_csname
my_charset_get_by_name
resolve_charset
resolve_collation
free_charsets
get_charsets_dir
my_charset_same
add_compiled_collation
escape_string_for_mysql
fs_character_set
escape_quotes_for_mysql
init_compiled_charsets
my_init_dynamic_array
init_dynamic_array
insert_dynamic
alloc_dynamic
pop_dynamic
get_dynamic
claim_dynamic
delete_dynamic
freeze_size
my_aes_opmode_names DATA
?my_aes_opmode_key_sizes@@3PEAIEA DATA
my_aes_encrypt
my_aes_decrypt
my_aes_get_size
my_aes_needs_iv
?dummy_function_needed_by_xplugin@@YAHXZ
murmur3_32
my_rnd
my_rnd_ssl
my_rand_buffer
compute_md5_hash
compute_sha1_hash
compute_sha1_hash_multi
?mysql_sha1_reset@@YAHPEAUSHAstate_st@@@Z
?mysql_sha1_input@@YAHPEAUSHAstate_st@@PEBEI@Z
?mysql_sha1_result@@YAHPEAUSHAstate_st@@QEAE@Z
?my_aes_create_key@@YAXPEBEIPEAEW4my_aes_opmode@@@Z
disabled_my_option DATA
my_getopt_print_errors DATA
my_getopt_skip_unknown DATA
my_getopt_error_reporter DATA
?enabled_my_option@@3PEADEA DATA
handle_options
my_handle_options
print_cmdline_password_warning
my_cleanup_options
my_print_help
my_print_variables
my_print_variables_ex
my_getopt_register_get_addr
getopt_ull_limit_value
getopt_ll_limit_value
getopt_double_limit_value
getopt_compare_strings
max_of_int_range
getopt_double2ulonglong
getopt_ulonglong2double
key_memory_defaults DATA
my_defaults_extra_file DATA
my_defaults_group_suffix DATA
my_defaults_file DATA
my_getopt_use_args_separator DATA
my_defaults_read_login_file DATA
my_getopt_is_args_separator
get_defaults_options
my_load_defaults
check_file_permissions
load_defaults
my_search_option_files
free_defaults
my_print_default_files
print_defaults
my_default_get_login_file
??1?$Prealloced_array@PEAD$0GE@$00@@QEAA@XZ
?reserve@?$Prealloced_array@PEAD$0GE@$00@@QEAA_N_K@Z
?push_back@?$Prealloced_array@PEAD$0GE@$00@@QEAA_NAEBQEAD@Z
init_tmpdir
my_tmpdir
free_tmpdir
??1Mutex_lock@@QEAA@XZ
??1?$Prealloced_array@PEAD$09$00@@QEAA@XZ
?reserve@?$Prealloced_array@PEAD$09$00@@QEAA_N_K@Z
?push_back@?$Prealloced_array@PEAD$09$00@@QEAA_NAEBQEAD@Z
?extract_user_salt@@YAHPEAPEAD0@Z
my_crypt_genhash
generate_user_salt
xor_string
?strlcat@@YA_KPEADPEBD_K@Z
?sha256_find_digest@@YAPEBDPEAD@Z
my_regex_init
my_regex_end
my_regfree
my_regexec
my_regerror
cclasses DATA
my_regex_enough_mem_in_stack DATA
my_regcomp
?initialize_channel_ssl_info@@YAXPEAUst_ssl_info@@@Z
?initialize_channel_creation_info@@YAXPEAUst_channel_info@@@Z
?initialize_channel_connection_info@@YAXPEAUst_channel_connection_info@@@Z
?channel_create@@YAHPEBDPEAUst_channel_info@@@Z
?channel_start@@YAHPEBDPEAUst_channel_connection_info@@HH@Z
?channel_stop@@YAHPEBDHJ@Z
?channel_stop_all@@YAHHJ@Z
?channel_purge_queue@@YAHPEBD_N@Z
?channel_is_active@@YA_NPEBDW4enum_channel_thread_types@@@Z
?channel_get_thread_id@@YAHPEBDW4enum_channel_thread_types@@PEAPEAK@Z
?channel_get_last_delivered_gno@@YA_JPEBDH@Z
?channel_add_executed_gtids_to_received_gtids@@YAHPEBD@Z
?channel_queue_packet@@YAHPEBD0K@Z
?channel_wait_until_apply_queue_applied@@YAHPEBDN@Z
?channel_is_applier_waiting@@YAHPEBD@Z
?channel_is_applier_thread_waiting@@YAHK_N@Z
?channel_flush@@YAHPEBD@Z
?initialize_channel_service_interface@@YAHXZ
?channel_get_retrieved_gtid_set@@YAHPEBDPEAPEAD@Z
?channel_is_stopping@@YA_NPEBDW4enum_channel_thread_types@@@Z
?is_partial_transaction_on_channel_relay_log@@YA_NPEBD@Z
?is_any_slave_channel_running@@YA_NH@Z
??0st_lex_master_info@@QEAA@XZ
??1?$Prealloced_array@K$01$00@@QEAA@XZ
??1st_lex_master_info@@QEAA@XZ
?set_mi_description_event@Master_info@@QEAAXPEAVFormat_description_log_event@@@Z
??0?$_Tree_const_iterator@V?$_Tree_val@U?$_Tree_simple_types@U?$pair@$$CBV?$basic_string@DU?$char_traits@D@std@@V?$allocator@D@2@@std@@PEAVMaster_info@@@std@@@std@@@std@@@std@@QEAA@AEBV01@@Z
??RFind_thd_with_id@@UEAA_NPEAVTHD@@@Z
??1Find_thd_with_id@@UEAA@XZ
?channel_stop@@YAHPEAVMaster_info@@HJ@Z
?set_mi_settings@@YAXPEAVMaster_info@@PEAUst_channel_info@@@Z
?init_thread_context@@YA_NXZ
?clean_thread_context@@YAXXZ
?create_surrogate_thread@@YAPEAVTHD@@XZ
?delete_surrogate_thread@@YAXPEAVTHD@@@Z
?set_mi_ssl_options@@YAXPEAUst_lex_master_info@@PEAUst_ssl_info@@@Z
?reset@Transaction_boundary_parser@@QEAAXXZ
?feed_event@Transaction_boundary_parser@@QEAA_NPEBD_KPEBVFormat_description_log_event@@_N@Z
?get_event_boundary_type@Transaction_boundary_parser@@CA?AW4enum_event_boundary_type@1@PEBD_KPEBVFormat_description_log_event@@_N@Z
?update_state@Transaction_boundary_parser@@AEAA_NW4enum_event_boundary_type@1@_N@Z
?default_channel@Multisource_info@@0PEBDEB DATA
?group_replication_channel_names@Multisource_info@@0PAPEBDA DATA
??0Checkable_rwlock@@QEAA@I@Z
??0?$_Tree@V?$_Tmap_traits@HV?$map@V?$basic_string@DU?$char_traits@D@std@@V?$allocator@D@2@@std@@PEAVMaster_info@@U?$less@V?$basic_string@DU?$char_traits@D@std@@V?$allocator@D@2@@std@@@2@V?$allocator@U?$pair@$$CBV?$basic_string@DU?$char_traits@D@std@@V?$allocator@D@2@@std@@PEAVMaster_info@@@std@@@2@@std@@U?$less@H@2@V?$allocator@U?$pair@$$CBHV?$map@V?$basic_string@DU?$char_traits@D@std@@V?$allocator@D@2@@std@@PEAVMaster_info@@U?$less@V?$basic_string@DU?$char_traits@D@std@@V?$allocator@D@2@@std@@@2@V?$allocator@U?$pair@$$CBV?$basic_string@DU?$char_traits@D@std@@V?$allocator@D@2@@std@@PEAVMaster_info@@@std@@@2@@std@@@std@@@2@$0A@@std@@@std@@QEAA@AEBU?$less@H@1@@Z
??1?$_Tree@V?$_Tmap_traits@HV?$map@V?$basic_string@DU?$char_traits@D@std@@V?$allocator@D@2@@std@@PEAVMaster_info@@U?$less@V?$basic_string@DU?$char_traits@D@std@@V?$allocator@D@2@@std@@@2@V?$allocator@U?$pair@$$CBV?$basic_string@DU?$char_traits@D@std@@V?$allocator@D@2@@std@@PEAVMaster_info@@@std@@@2@@std@@U?$less@H@2@V?$allocator@U?$pair@$$CBHV?$map@V?$basic_string@DU?$char_traits@D@std@@V?$allocator@D@2@@std@@PEAVMaster_info@@U?$less@V?$basic_string@DU?$char_traits@D@std@@V?$allocator@D@2@@std@@@2@V?$allocator@U?$pair@$$CBV?$basic_string@DU?$char_traits@D@std@@V?$allocator@D@2@@std@@PEAVMaster_info@@@std@@@2@@std@@@std@@@2@$0A@@std@@@std@@QEAA@XZ
?_Check_grow_by_1@?$_Tree@V?$_Tmap_traits@HV?$map@V?$basic_string@DU?$char_traits@D@std@@V?$allocator@D@2@@std@@PEAVMaster_info@@U?$less@V?$basic_string@DU?$char_traits@D@std@@V?$allocator@D@2@@std@@@2@V?$allocator@U?$pair@$$CBV?$basic_string@DU?$char_traits@D@std@@V?$allocator@D@2@@std@@PEAVMaster_info@@@std@@@2@@std@@U?$less@H@2@V?$allocator@U?$pair@$$CBHV?$map@V?$basic_string@DU?$char_traits@D@std@@V?$allocator@D@2@@std@@PEAVMaster_info@@U?$less@V?$basic_string@DU?$char_traits@D@std@@V?$allocator@D@2@@std@@@2@V?$allocator@U?$pair@$$CBV?$basic_string@DU?$char_traits@D@std@@V?$allocator@D@2@@std@@PEAVMaster_info@@@std@@@2@@std@@@std@@@2@$0A@@std@@@std@@IEAAXXZ
?_Alloc_sentinel_and_proxy@?$_Tree@V?$_Tmap_traits@HV?$map@V?$basic_string@DU?$char_traits@D@std@@V?$allocator@D@2@@std@@PEAVMaster_info@@U?$less@V?$basic_string@DU?$char_traits@D@std@@V?$allocator@D@2@@std@@@2@V?$allocator@U?$pair@$$CBV?$basic_string@DU?$char_traits@D@std@@V?$allocator@D@2@@std@@PEAVMaster_info@@@std@@@2@@std@@U?$less@H@2@V?$allocator@U?$pair@$$CBHV?$map@V?$basic_string@DU?$char_traits@D@std@@V?$allocator@D@2@@std@@PEAVMaster_info@@U?$less@V?$basic_string@DU?$char_traits@D@std@@V?$allocator@D@2@@std@@@2@V?$allocator@U?$pair@$$CBV?$basic_string@DU?$char_traits@D@std@@V?$allocator@D@2@@std@@PEAVMaster_info@@@std@@@2@@std@@@std@@@2@$0A@@std@@@std@@IEAAXXZ
?_Lrotate@?$_Tree_val@U?$_Tree_simple_types@U?$pair@$$CBHV?$map@V?$basic_string@DU?$char_traits@D@std@@V?$allocator@D@2@@std@@PEAVMaster_info@@U?$less@V?$basic_string@DU?$char_traits@D@std@@V?$allocator@D@2@@std@@@2@V?$allocator@U?$pair@$$CBV?$basic_string@DU?$char_traits@D@std@@V?$allocator@D@2@@std@@PEAVMaster_info@@@std@@@2@@std@@@std@@@std@@@std@@QEAAXPEAU?$_Tree_node@U?$pair@$$CBHV?$map@V?$basic_string@DU?$char_traits@D@std@@V?$allocator@D@2@@std@@PEAVMaster_info@@U?$less@V?$basic_string@DU?$char_traits@D@std@@V?$allocator@D@2@@std@@@2@V?$allocator@U?$pair@$$CBV?$basic_string@DU?$char_traits@D@std@@V?$allocator@D@2@@std@@PEAVMaster_info@@@std@@@2@@std@@@std@@PEAX@2@@Z
?_Rrotate@?$_Tree_val@U?$_Tree_simple_types@U?$pair@$$CBHV?$map@V?$basic_string@DU?$char_traits@D@std@@V?$allocator@D@2@@std@@PEAVMaster_info@@U?$less@V?$basic_string@DU?$char_traits@D@std@@V?$allocator@D@2@@std@@@2@V?$allocator@U?$pair@$$CBV?$basic_string@DU?$char_traits@D@std@@V?$allocator@D@2@@std@@PEAVMaster_info@@@std@@@2@@std@@@std@@@std@@@std@@QEAAXPEAU?$_Tree_node@U?$pair@$$CBHV?$map@V?$basic_string@DU?$char_traits@D@std@@V?$allocator@D@2@@std@@PEAVMaster_info@@U?$less@V?$basic_string@DU?$char_traits@D@std@@V?$allocator@D@2@@std@@@2@V?$allocator@U?$pair@$$CBV?$basic_string@DU?$char_traits@D@std@@V?$allocator@D@2@@std@@PEAVMaster_info@@@std@@@2@@std@@@std@@PEAX@2@@Z
?_Insert_node@?$_Tree_val@U?$_Tree_simple_types@U?$pair@$$CBHV?$map@V?$basic_string@DU?$char_traits@D@std@@V?$allocator@D@2@@std@@PEAVMaster_info@@U?$less@V?$basic_string@DU?$char_traits@D@std@@V?$allocator@D@2@@std@@@2@V?$allocator@U?$pair@$$CBV?$basic_string@DU?$char_traits@D@std@@V?$allocator@D@2@@std@@PEAVMaster_info@@@std@@@2@@std@@@std@@@std@@@std@@QEAAPEAU?$_Tree_node@U?$pair@$$CBHV?$map@V?$basic_string@DU?$char_traits@D@std@@V?$allocator@D@2@@std@@PEAVMaster_info@@U?$less@V?$basic_string@DU?$char_traits@D@std@@V?$allocator@D@2@@std@@@2@V?$allocator@U?$pair@$$CBV?$basic_string@DU?$char_traits@D@std@@V?$allocator@D@2@@std@@PEAVMaster_info@@@std@@@2@@std@@@std@@PEAX@2@U?$_Tree_id@PEAU?$_Tree_node@U?$pair@$$CBHV?$map@V?$basic_string@DU?$char_traits@D@std@@V?$allocator@D@2@@std@@PEAVMaster_info@@U?$less@V?$basic_string@DU?$char_traits@D@std@@V?$allocator@D@2@@std@@@2@V?$allocator@U?$pair@$$CBV?$basic_string@DU?$char_traits@D@std@@V?$allocator@D@2@@std@@PEAVMaster_info@@@std@@@2@@std@@@std@@PEAX@std@@@2@QEAU32@@Z
??1?$map@HV?$map@V?$basic_string@DU?$char_traits@D@std@@V?$allocator@D@2@@std@@PEAVMaster_info@@U?$less@V?$basic_string@DU?$char_traits@D@std@@V?$allocator@D@2@@std@@@2@V?$allocator@U?$pair@$$CBV?$basic_string@DU?$char_traits@D@std@@V?$allocator@D@2@@std@@PEAVMaster_info@@@std@@@2@@std@@U?$less@H@2@V?$allocator@U?$pair@$$CBHV?$map@V?$basic_string@DU?$char_traits@D@std@@V?$allocator@D@2@@std@@PEAVMaster_info@@U?$less@V?$basic_string@DU?$char_traits@D@std@@V?$allocator@D@2@@std@@@2@V?$allocator@U?$pair@$$CBV?$basic_string@DU?$char_traits@D@std@@V?$allocator@D@2@@std@@PEAVMaster_info@@@std@@@2@@std@@@std@@@2@@std@@QEAA@XZ
??0?$_Tree@V?$_Tmap_traits@V?$basic_string@DU?$char_traits@D@std@@V?$allocator@D@2@@std@@PEAVMaster_info@@U?$less@V?$basic_string@DU?$char_traits@D@std@@V?$allocator@D@2@@std@@@2@V?$allocator@U?$pair@$$CBV?$basic_string@DU?$char_traits@D@std@@V?$allocator@D@2@@std@@PEAVMaster_info@@@std@@@2@$0A@@std@@@std@@QEAA@AEBU?$less@V?$basic_string@DU?$char_traits@D@std@@V?$allocator@D@2@@std@@@1@@Z
??0?$_Tree@V?$_Tmap_traits@V?$basic_string@DU?$char_traits@D@std@@V?$allocator@D@2@@std@@PEAVMaster_info@@U?$less@V?$basic_string@DU?$char_traits@D@std@@V?$allocator@D@2@@std@@@2@V?$allocator@U?$pair@$$CBV?$basic_string@DU?$char_traits@D@std@@V?$allocator@D@2@@std@@PEAVMaster_info@@@std@@@2@$0A@@std@@@std@@QEAA@$$QEAV01@@Z
?_Swap_val@?$_Tree@V?$_Tmap_traits@V?$basic_string@DU?$char_traits@D@std@@V?$allocator@D@2@@std@@PEAVMaster_info@@U?$less@V?$basic_string@DU?$char_traits@D@std@@V?$allocator@D@2@@std@@@2@V?$allocator@U?$pair@$$CBV?$basic_string@DU?$char_traits@D@std@@V?$allocator@D@2@@std@@PEAVMaster_info@@@std@@@2@$0A@@std@@@std@@AEAAXAEAV12@@Z
??1?$_Tree@V?$_Tmap_traits@V?$basic_string@DU?$char_traits@D@std@@V?$allocator@D@2@@std@@PEAVMaster_info@@U?$less@V?$basic_string@DU?$char_traits@D@std@@V?$allocator@D@2@@std@@@2@V?$allocator@U?$pair@$$CBV?$basic_string@DU?$char_traits@D@std@@V?$allocator@D@2@@std@@PEAVMaster_info@@@std@@@2@$0A@@std@@@std@@QEAA@XZ
?_Check_grow_by_1@?$_Tree@V?$_Tmap_traits@V?$basic_string@DU?$char_traits@D@std@@V?$allocator@D@2@@std@@PEAVMaster_info@@U?$less@V?$basic_string@DU?$char_traits@D@std@@V?$allocator@D@2@@std@@@2@V?$allocator@U?$pair@$$CBV?$basic_string@DU?$char_traits@D@std@@V?$allocator@D@2@@std@@PEAVMaster_info@@@std@@@2@$0A@@std@@@std@@IEAAXXZ
?_Alloc_sentinel_and_proxy@?$_Tree@V?$_Tmap_traits@V?$basic_string@DU?$char_traits@D@std@@V?$allocator@D@2@@std@@PEAVMaster_info@@U?$less@V?$basic_string@DU?$char_traits@D@std@@V?$allocator@D@2@@std@@@2@V?$allocator@U?$pair@$$CBV?$basic_string@DU?$char_traits@D@std@@V?$allocator@D@2@@std@@PEAVMaster_info@@@std@@@2@$0A@@std@@@std@@IEAAXXZ
?_Lrotate@?$_Tree_val@U?$_Tree_simple_types@U?$pair@$$CBV?$basic_string@DU?$char_traits@D@std@@V?$allocator@D@2@@std@@PEAVMaster_info@@@std@@@std@@@std@@QEAAXPEAU?$_Tree_node@U?$pair@$$CBV?$basic_string@DU?$char_traits@D@std@@V?$allocator@D@2@@std@@PEAVMaster_info@@@std@@PEAX@2@@Z
?_Rrotate@?$_Tree_val@U?$_Tree_simple_types@U?$pair@$$CBV?$basic_string@DU?$char_traits@D@std@@V?$allocator@D@2@@std@@PEAVMaster_info@@@std@@@std@@@std@@QEAAXPEAU?$_Tree_node@U?$pair@$$CBV?$basic_string@DU?$char_traits@D@std@@V?$allocator@D@2@@std@@PEAVMaster_info@@@std@@PEAX@2@@Z
?_Insert_node@?$_Tree_val@U?$_Tree_simple_types@U?$pair@$$CBV?$basic_string@DU?$char_traits@D@std@@V?$allocator@D@2@@std@@PEAVMaster_info@@@std@@@std@@@std@@QEAAPEAU?$_Tree_node@U?$pair@$$CBV?$basic_string@DU?$char_traits@D@std@@V?$allocator@D@2@@std@@PEAVMaster_info@@@std@@PEAX@2@U?$_Tree_id@PEAU?$_Tree_node@U?$pair@$$CBV?$basic_string@DU?$char_traits@D@std@@V?$allocator@D@2@@std@@PEAVMaster_info@@@std@@PEAX@std@@@2@QEAU32@@Z
?_Orphan_ptr@?$_Tree_val@U?$_Tree_simple_types@U?$pair@$$CBV?$basic_string@DU?$char_traits@D@std@@V?$allocator@D@2@@std@@PEAVMaster_info@@@std@@@std@@@std@@QEAAXQEAU?$_Tree_node@U?$pair@$$CBV?$basic_string@DU?$char_traits@D@std@@V?$allocator@D@2@@std@@PEAVMaster_info@@@std@@PEAX@2@@Z
??0?$map@V?$basic_string@DU?$char_traits@D@std@@V?$allocator@D@2@@std@@PEAVMaster_info@@U?$less@V?$basic_string@DU?$char_traits@D@std@@V?$allocator@D@2@@std@@@2@V?$allocator@U?$pair@$$CBV?$basic_string@DU?$char_traits@D@std@@V?$allocator@D@2@@std@@PEAVMaster_info@@@std@@@2@@std@@QEAA@$$QEAV01@@Z
??1?$map@V?$basic_string@DU?$char_traits@D@std@@V?$allocator@D@2@@std@@PEAVMaster_info@@U?$less@V?$basic_string@DU?$char_traits@D@std@@V?$allocator@D@2@@std@@@2@V?$allocator@U?$pair@$$CBV?$basic_string@DU?$char_traits@D@std@@V?$allocator@D@2@@std@@PEAVMaster_info@@@std@@@2@@std@@QEAA@XZ
??0Multisource_info@@QEAA@XZ
??1Multisource_info@@QEAA@XZ
?add_mi@Multisource_info@@QEAA_NPEBDPEAVMaster_info@@@Z
?get_mi@Multisource_info@@QEAAPEAVMaster_info@@PEBD@Z
?delete_mi@Multisource_info@@QEAAXPEBD@Z
?is_group_replication_channel_name@Multisource_info@@QEAA_NPEBD_N@Z
?add_mi_to_rpl_pfs_mi@Multisource_info@@AEAA_NPEAVMaster_info@@@Z
?get_index_from_rpl_pfs_mi@Multisource_info@@AEAAHPEBD@Z
?get_mi_at_pos@Multisource_info@@QEAAPEAVMaster_info@@I@Z
??0?$_Tree_unchecked_const_iterator@V?$_Tree_val@U?$_Tree_simple_types@U?$pair@$$CBHV?$map@V?$basic_string@DU?$char_traits@D@std@@V?$allocator@D@2@@std@@PEAVMaster_info@@U?$less@V?$basic_string@DU?$char_traits@D@std@@V?$allocator@D@2@@std@@@2@V?$allocator@U?$pair@$$CBV?$basic_string@DU?$char_traits@D@std@@V?$allocator@D@2@@std@@PEAVMaster_info@@@std@@@2@@std@@@std@@@std@@@std@@U_Iterator_base12@2@@std@@QEAA@$$QEAV01@@Z
??4?$_Tree_unchecked_const_iterator@V?$_Tree_val@U?$_Tree_simple_types@U?$pair@$$CBHV?$map@V?$basic_string@DU?$char_traits@D@std@@V?$allocator@D@2@@std@@PEAVMaster_info@@U?$less@V?$basic_string@DU?$char_traits@D@std@@V?$allocator@D@2@@std@@@2@V?$allocator@U?$pair@$$CBV?$basic_string@DU?$char_traits@D@std@@V?$allocator@D@2@@std@@PEAVMaster_info@@@std@@@2@@std@@@std@@@std@@@std@@U_Iterator_base12@2@@std@@QEAAAEAV01@$$QEAV01@@Z
??0?$_Tree_const_iterator@V?$_Tree_val@U?$_Tree_simple_types@U?$pair@$$CBHV?$map@V?$basic_string@DU?$char_traits@D@std@@V?$allocator@D@2@@std@@PEAVMaster_info@@U?$less@V?$basic_string@DU?$char_traits@D@std@@V?$allocator@D@2@@std@@@2@V?$allocator@U?$pair@$$CBV?$basic_string@DU?$char_traits@D@std@@V?$allocator@D@2@@std@@PEAVMaster_info@@@std@@@2@@std@@@std@@@std@@@std@@@std@@QEAA@XZ
??1?$pair@$$CBHV?$map@V?$basic_string@DU?$char_traits@D@std@@V?$allocator@D@2@@std@@PEAVMaster_info@@U?$less@V?$basic_string@DU?$char_traits@D@std@@V?$allocator@D@2@@std@@@2@V?$allocator@U?$pair@$$CBV?$basic_string@DU?$char_traits@D@std@@V?$allocator@D@2@@std@@PEAVMaster_info@@@std@@@2@@std@@@std@@QEAA@XZ
??1?$pair@$$CBV?$basic_string@DU?$char_traits@D@std@@V?$allocator@D@2@@std@@PEAVMaster_info@@@std@@QEAA@XZ
??0?$_Tree_unchecked_const_iterator@V?$_Tree_val@U?$_Tree_simple_types@U?$pair@$$CBV?$basic_string@DU?$char_traits@D@std@@V?$allocator@D@2@@std@@PEAVMaster_info@@@std@@@std@@@std@@U_Iterator_base12@2@@std@@QEAA@XZ
??0?$_Tree_unchecked_const_iterator@V?$_Tree_val@U?$_Tree_simple_types@U?$pair@$$CBV?$basic_string@DU?$char_traits@D@std@@V?$allocator@D@2@@std@@PEAVMaster_info@@@std@@@std@@@std@@U_Iterator_base12@2@@std@@QEAA@AEBV01@@Z
??0?$_Tree_unchecked_const_iterator@V?$_Tree_val@U?$_Tree_simple_types@U?$pair@$$CBV?$basic_string@DU?$char_traits@D@std@@V?$allocator@D@2@@std@@PEAVMaster_info@@@std@@@std@@@std@@U_Iterator_base12@2@@std@@QEAA@$$QEAV01@@Z
??4?$_Tree_unchecked_const_iterator@V?$_Tree_val@U?$_Tree_simple_types@U?$pair@$$CBV?$basic_string@DU?$char_traits@D@std@@V?$allocator@D@2@@std@@PEAVMaster_info@@@std@@@std@@@std@@U_Iterator_base12@2@@std@@QEAAAEAV01@$$QEAV01@@Z
??0?$_Tree_const_iterator@V?$_Tree_val@U?$_Tree_simple_types@U?$pair@$$CBV?$basic_string@DU?$char_traits@D@std@@V?$allocator@D@2@@std@@PEAVMaster_info@@@std@@@std@@@std@@@std@@QEAA@XZ
??1?$_Tree_const_iterator@V?$_Tree_val@U?$_Tree_simple_types@U?$pair@$$CBV?$basic_string@DU?$char_traits@D@std@@V?$allocator@D@2@@std@@PEAVMaster_info@@@std@@@std@@@std@@@std@@QEAA@XZ
??0?$_Tree_const_iterator@V?$_Tree_val@U?$_Tree_simple_types@U?$pair@$$CBV?$basic_string@DU?$char_traits@D@std@@V?$allocator@D@2@@std@@PEAVMaster_info@@@std@@@std@@@std@@@std@@QEAA@PEAU?$_Tree_node@U?$pair@$$CBV?$basic_string@DU?$char_traits@D@std@@V?$allocator@D@2@@std@@PEAVMaster_info@@@std@@PEAX@1@PEBV?$_Tree_val@U?$_Tree_simple_types@U?$pair@$$CBV?$basic_string@DU?$char_traits@D@std@@V?$allocator@D@2@@std@@PEAVMaster_info@@@std@@@std@@@1@@Z
??0?$_Tree_iterator@V?$_Tree_val@U?$_Tree_simple_types@U?$pair@$$CBV?$basic_string@DU?$char_traits@D@std@@V?$allocator@D@2@@std@@PEAVMaster_info@@@std@@@std@@@std@@@std@@QEAA@PEAU?$_Tree_node@U?$pair@$$CBV?$basic_string@DU?$char_traits@D@std@@V?$allocator@D@2@@std@@PEAVMaster_info@@@std@@PEAX@1@PEBV?$_Tree_val@U?$_Tree_simple_types@U?$pair@$$CBV?$basic_string@DU?$char_traits@D@std@@V?$allocator@D@2@@std@@PEAVMaster_info@@@std@@@std@@@1@@Z
??1?$pair@V?$_Tree_iterator@V?$_Tree_val@U?$_Tree_simple_types@U?$pair@$$CBV?$basic_string@DU?$char_traits@D@std@@V?$allocator@D@2@@std@@PEAVMaster_info@@@std@@@std@@@std@@@std@@_N@std@@QEAA@XZ
??$?0V?$_Tree_iterator@V?$_Tree_val@U?$_Tree_simple_types@U?$pair@$$CBV?$basic_string@DU?$char_traits@D@std@@V?$allocator@D@2@@std@@PEAVMaster_info@@@std@@@std@@@std@@@std@@_N$0A@@?$pair@V?$_Tree_iterator@V?$_Tree_val@U?$_Tree_simple_types@U?$pair@$$CBV?$basic_string@DU?$char_traits@D@std@@V?$allocator@D@2@@std@@PEAVMaster_info@@@std@@@std@@@std@@@std@@_N@std@@QEAA@XZ
??1?$pair@V?$_Tree_iterator@V?$_Tree_val@U?$_Tree_simple_types@U?$pair@$$CBHV?$map@V?$basic_string@DU?$char_traits@D@std@@V?$allocator@D@2@@std@@PEAVMaster_info@@U?$less@V?$basic_string@DU?$char_traits@D@std@@V?$allocator@D@2@@std@@@2@V?$allocator@U?$pair@$$CBV?$basic_string@DU?$char_traits@D@std@@V?$allocator@D@2@@std@@PEAVMaster_info@@@std@@@2@@std@@@std@@@std@@@std@@@std@@_N@std@@QEAA@XZ
??$insert@$0A@$0A@@?$_Tree@V?$_Tmap_traits@HV?$map@V?$basic_string@DU?$char_traits@D@std@@V?$allocator@D@2@@std@@PEAVMaster_info@@U?$less@V?$basic_string@DU?$char_traits@D@std@@V?$allocator@D@2@@std@@@2@V?$allocator@U?$pair@$$CBV?$basic_string@DU?$char_traits@D@std@@V?$allocator@D@2@@std@@PEAVMaster_info@@@std@@@2@@std@@U?$less@H@2@V?$allocator@U?$pair@$$CBHV?$map@V?$basic_string@DU?$char_traits@D@std@@V?$allocator@D@2@@std@@PEAVMaster_info@@U?$less@V?$basic_string@DU?$char_traits@D@std@@V?$allocator@D@2@@std@@@2@V?$allocator@U?$pair@$$CBV?$basic_string@DU?$char_traits@D@std@@V?$allocator@D@2@@std@@PEAVMaster_info@@@std@@@2@@std@@@std@@@2@$0A@@std@@@std@@QEAA?AU?$pair@V?$_Tree_iterator@V?$_Tree_val@U?$_Tree_simple_types@U?$pair@$$CBHV?$map@V?$basic_string@DU?$char_traits@D@std@@V?$allocator@D@2@@std@@PEAVMaster_info@@U?$less@V?$basic_string@DU?$char_traits@D@std@@V?$allocator@D@2@@std@@@2@V?$allocator@U?$pair@$$CBV?$basic_string@DU?$char_traits@D@std@@V?$allocator@D@2@@std@@PEAVMaster_info@@@std@@@2@@std@@@std@@@std@@@std@@@std@@_N@1@$$QEAU?$pair@$$CBHV?$map@V?$basic_string@DU?$char_traits@D@std@@V?$allocator@D@2@@std@@PEAVMaster_info@@U?$less@V?$basic_string@DU?$char_traits@D@std@@V?$allocator@D@2@@std@@@2@V?$allocator@U?$pair@$$CBV?$basic_string@DU?$char_traits@D@std@@V?$allocator@D@2@@std@@PEAVMaster_info@@@std@@@2@@std@@@1@@Z
??$insert@$0A@$0A@@?$_Tree@V?$_Tmap_traits@V?$basic_string@DU?$char_traits@D@std@@V?$allocator@D@2@@std@@PEAVMaster_info@@U?$less@V?$basic_string@DU?$char_traits@D@std@@V?$allocator@D@2@@std@@@2@V?$allocator@U?$pair@$$CBV?$basic_string@DU?$char_traits@D@std@@V?$allocator@D@2@@std@@PEAVMaster_info@@@std@@@2@$0A@@std@@@std@@QEAA?AU?$pair@V?$_Tree_iterator@V?$_Tree_val@U?$_Tree_simple_types@U?$pair@$$CBV?$basic_string@DU?$char_traits@D@std@@V?$allocator@D@2@@std@@PEAVMaster_info@@@std@@@std@@@std@@@std@@_N@1@$$QEAU?$pair@$$CBV?$basic_string@DU?$char_traits@D@std@@V?$allocator@D@2@@std@@PEAVMaster_info@@@1@@Z
??$erase@V?$_Tree_iterator@V?$_Tree_val@U?$_Tree_simple_types@U?$pair@$$CBV?$basic_string@DU?$char_traits@D@std@@V?$allocator@D@2@@std@@PEAVMaster_info@@@std@@@std@@@std@@@std@@$0A@@?$_Tree@V?$_Tmap_traits@V?$basic_string@DU?$char_traits@D@std@@V?$allocator@D@2@@std@@PEAVMaster_info@@U?$less@V?$basic_string@DU?$char_traits@D@std@@V?$allocator@D@2@@std@@@2@V?$allocator@U?$pair@$$CBV?$basic_string@DU?$char_traits@D@std@@V?$allocator@D@2@@std@@PEAVMaster_info@@@std@@@2@$0A@@std@@@std@@QEAA?AV?$_Tree_iterator@V?$_Tree_val@U?$_Tree_simple_types@U?$pair@$$CBV?$basic_string@DU?$char_traits@D@std@@V?$allocator@D@2@@std@@PEAVMaster_info@@@std@@@std@@@std@@@1@V21@@Z
??$_Find@V?$basic_string@DU?$char_traits@D@std@@V?$allocator@D@2@@std@@@?$_Tree@V?$_Tmap_traits@V?$basic_string@DU?$char_traits@D@std@@V?$allocator@D@2@@std@@PEAVMaster_info@@U?$less@V?$basic_string@DU?$char_traits@D@std@@V?$allocator@D@2@@std@@@2@V?$allocator@U?$pair@$$CBV?$basic_string@DU?$char_traits@D@std@@V?$allocator@D@2@@std@@PEAVMaster_info@@@std@@@2@$0A@@std@@@std@@AEBAPEAU?$_Tree_node@U?$pair@$$CBV?$basic_string@DU?$char_traits@D@std@@V?$allocator@D@2@@std@@PEAVMaster_info@@@std@@PEAX@1@AEBV?$basic_string@DU?$char_traits@D@std@@V?$allocator@D@2@@1@@Z
??$_Erase_head@V?$allocator@U?$_Tree_node@U?$pair@$$CBV?$basic_string@DU?$char_traits@D@std@@V?$allocator@D@2@@std@@PEAVMaster_info@@@std@@PEAX@std@@@std@@@?$_Tree_val@U?$_Tree_simple_types@U?$pair@$$CBV?$basic_string@DU?$char_traits@D@std@@V?$allocator@D@2@@std@@PEAVMaster_info@@@std@@@std@@@std@@QEAAXAEAV?$allocator@U?$_Tree_node@U?$pair@$$CBV?$basic_string@DU?$char_traits@D@std@@V?$allocator@D@2@@std@@PEAVMaster_info@@@std@@PEAX@std@@@1@@Z
??$_Erase_head@V?$allocator@U?$_Tree_node@U?$pair@$$CBHV?$map@V?$basic_string@DU?$char_traits@D@std@@V?$allocator@D@2@@std@@PEAVMaster_info@@U?$less@V?$basic_string@DU?$char_traits@D@std@@V?$allocator@D@2@@std@@@2@V?$allocator@U?$pair@$$CBV?$basic_string@DU?$char_traits@D@std@@V?$allocator@D@2@@std@@PEAVMaster_info@@@std@@@2@@std@@@std@@PEAX@std@@@std@@@?$_Tree_val@U?$_Tree_simple_types@U?$pair@$$CBHV?$map@V?$basic_string@DU?$char_traits@D@std@@V?$allocator@D@2@@std@@PEAVMaster_info@@U?$less@V?$basic_string@DU?$char_traits@D@std@@V?$allocator@D@2@@std@@@2@V?$allocator@U?$pair@$$CBV?$basic_string@DU?$char_traits@D@std@@V?$allocator@D@2@@std@@PEAVMaster_info@@@std@@@2@@std@@@std@@@std@@@std@@QEAAXAEAV?$allocator@U?$_Tree_node@U?$pair@$$CBHV?$map@V?$basic_string@DU?$char_traits@D@std@@V?$allocator@D@2@@std@@PEAVMaster_info@@U?$less@V?$basic_string@DU?$char_traits@D@std@@V?$allocator@D@2@@std@@@2@V?$allocator@U?$pair@$$CBV?$basic_string@DU?$char_traits@D@std@@V?$allocator@D@2@@std@@PEAVMaster_info@@@std@@@2@@std@@@std@@PEAX@std@@@1@@Z
??$?0AEBU?$less@V?$basic_string@DU?$char_traits@D@std@@V?$allocator@D@2@@std@@@std@@U_Zero_then_variadic_args_t@1@@?$_Compressed_pair@U?$less@V?$basic_string@DU?$char_traits@D@std@@V?$allocator@D@2@@std@@@std@@V?$_Compressed_pair@V?$allocator@U?$_Tree_node@U?$pair@$$CBV?$basic_string@DU?$char_traits@D@std@@V?$allocator@D@2@@std@@PEAVMaster_info@@@std@@PEAX@std@@@std@@V?$_Tree_val@U?$_Tree_simple_types@U?$pair@$$CBV?$basic_string@DU?$char_traits@D@std@@V?$allocator@D@2@@std@@PEAVMaster_info@@@std@@@std@@@2@$00@2@$00@std@@QEAA@U_One_then_variadic_args_t@1@AEBU?$less@V?$basic_string@DU?$char_traits@D@std@@V?$allocator@D@2@@std@@@1@$$QEAU_Zero_then_variadic_args_t@1@@Z
??$_Buyheadnode@V?$allocator@U?$_Tree_node@U?$pair@$$CBV?$basic_string@DU?$char_traits@D@std@@V?$allocator@D@2@@std@@PEAVMaster_info@@@std@@PEAX@std@@@std@@@?$_Tree_node@U?$pair@$$CBV?$basic_string@DU?$char_traits@D@std@@V?$allocator@D@2@@std@@PEAVMaster_info@@@std@@PEAX@std@@SAPEAU01@AEAV?$allocator@U?$_Tree_node@U?$pair@$$CBV?$basic_string@DU?$char_traits@D@std@@V?$allocator@D@2@@std@@PEAVMaster_info@@@std@@PEAX@std@@@1@@Z
??$_Buyheadnode@V?$allocator@U?$_Tree_node@U?$pair@$$CBHV?$map@V?$basic_string@DU?$char_traits@D@std@@V?$allocator@D@2@@std@@PEAVMaster_info@@U?$less@V?$basic_string@DU?$char_traits@D@std@@V?$allocator@D@2@@std@@@2@V?$allocator@U?$pair@$$CBV?$basic_string@DU?$char_traits@D@std@@V?$allocator@D@2@@std@@PEAVMaster_info@@@std@@@2@@std@@@std@@PEAX@std@@@std@@@?$_Tree_node@U?$pair@$$CBHV?$map@V?$basic_string@DU?$char_traits@D@std@@V?$allocator@D@2@@std@@PEAVMaster_info@@U?$less@V?$basic_string@DU?$char_traits@D@std@@V?$allocator@D@2@@std@@@2@V?$allocator@U?$pair@$$CBV?$basic_string@DU?$char_traits@D@std@@V?$allocator@D@2@@std@@PEAVMaster_info@@@std@@@2@@std@@@std@@PEAX@std@@SAPEAU01@AEAV?$allocator@U?$_Tree_node@U?$pair@$$CBHV?$map@V?$basic_string@DU?$char_traits@D@std@@V?$allocator@D@2@@std@@PEAVMaster_info@@U?$less@V?$basic_string@DU?$char_traits@D@std@@V?$allocator@D@2@@std@@@2@V?$allocator@U?$pair@$$CBV?$basic_string@DU?$char_traits@D@std@@V?$allocator@D@2@@std@@PEAVMaster_info@@@std@@@2@@std@@@std@@PEAX@std@@@1@@Z
??$_Emplace@U?$pair@$$CBHV?$map@V?$basic_string@DU?$char_traits@D@std@@V?$allocator@D@2@@std@@PEAVMaster_info@@U?$less@V?$basic_string@DU?$char_traits@D@std@@V?$allocator@D@2@@std@@@2@V?$allocator@U?$pair@$$CBV?$basic_string@DU?$char_traits@D@std@@V?$allocator@D@2@@std@@PEAVMaster_info@@@std@@@2@@std@@@std@@@?$_Tree@V?$_Tmap_traits@HV?$map@V?$basic_string@DU?$char_traits@D@std@@V?$allocator@D@2@@std@@PEAVMaster_info@@U?$less@V?$basic_string@DU?$char_traits@D@std@@V?$allocator@D@2@@std@@@2@V?$allocator@U?$pair@$$CBV?$basic_string@DU?$char_traits@D@std@@V?$allocator@D@2@@std@@PEAVMaster_info@@@std@@@2@@std@@U?$less@H@2@V?$allocator@U?$pair@$$CBHV?$map@V?$basic_string@DU?$char_traits@D@std@@V?$allocator@D@2@@std@@PEAVMaster_info@@U?$less@V?$basic_string@DU?$char_traits@D@std@@V?$allocator@D@2@@std@@@2@V?$allocator@U?$pair@$$CBV?$basic_string@DU?$char_traits@D@std@@V?$allocator@D@2@@std@@PEAVMaster_info@@@std@@@2@@std@@@std@@@2@$0A@@std@@@std@@IEAA?AU?$pair@PEAU?$_Tree_node@U?$pair@$$CBHV?$map@V?$basic_string@DU?$char_traits@D@std@@V?$allocator@D@2@@std@@PEAVMaster_info@@U?$less@V?$basic_string@DU?$char_traits@D@std@@V?$allocator@D@2@@std@@@2@V?$allocator@U?$pair@$$CBV?$basic_string@DU?$char_traits@D@std@@V?$allocator@D@2@@std@@PEAVMaster_info@@@std@@@2@@std@@@std@@PEAX@std@@_N@1@$$QEAU?$pair@$$CBHV?$map@V?$basic_string@DU?$char_traits@D@std@@V?$allocator@D@2@@std@@PEAVMaster_info@@U?$less@V?$basic_string@DU?$char_traits@D@std@@V?$allocator@D@2@@std@@@2@V?$allocator@U?$pair@$$CBV?$basic_string@DU?$char_traits@D@std@@V?$allocator@D@2@@std@@PEAVMaster_info@@@std@@@2@@std@@@1@@Z
??$_Emplace@U?$pair@$$CBV?$basic_string@DU?$char_traits@D@std@@V?$allocator@D@2@@std@@PEAVMaster_info@@@std@@@?$_Tree@V?$_Tmap_traits@V?$basic_string@DU?$char_traits@D@std@@V?$allocator@D@2@@std@@PEAVMaster_info@@U?$less@V?$basic_string@DU?$char_traits@D@std@@V?$allocator@D@2@@std@@@2@V?$allocator@U?$pair@$$CBV?$basic_string@DU?$char_traits@D@std@@V?$allocator@D@2@@std@@PEAVMaster_info@@@std@@@2@$0A@@std@@@std@@IEAA?AU?$pair@PEAU?$_Tree_node@U?$pair@$$CBV?$basic_string@DU?$char_traits@D@std@@V?$allocator@D@2@@std@@PEAVMaster_info@@@std@@PEAX@std@@_N@1@$$QEAU?$pair@$$CBV?$basic_string@DU?$char_traits@D@std@@V?$allocator@D@2@@std@@PEAVMaster_info@@@1@@Z
??E?$_Tree_unchecked_const_iterator@V?$_Tree_val@U?$_Tree_simple_types@U?$pair@$$CBV?$basic_string@DU?$char_traits@D@std@@V?$allocator@D@2@@std@@PEAVMaster_info@@@std@@@std@@@std@@U_Iterator_base0@2@@std@@QEAAAEAV01@XZ
??$_Find_lower_bound@V?$basic_string@DU?$char_traits@D@std@@V?$allocator@D@2@@std@@@?$_Tree@V?$_Tmap_traits@V?$basic_string@DU?$char_traits@D@std@@V?$allocator@D@2@@std@@PEAVMaster_info@@U?$less@V?$basic_string@DU?$char_traits@D@std@@V?$allocator@D@2@@std@@@2@V?$allocator@U?$pair@$$CBV?$basic_string@DU?$char_traits@D@std@@V?$allocator@D@2@@std@@PEAVMaster_info@@@std@@@2@$0A@@std@@@std@@IEBA?AU?$_Tree_find_result@PEAU?$_Tree_node@U?$pair@$$CBV?$basic_string@DU?$char_traits@D@std@@V?$allocator@D@2@@std@@PEAVMaster_info@@@std@@PEAX@std@@@1@AEBV?$basic_string@DU?$char_traits@D@std@@V?$allocator@D@2@@1@@Z
??$_Erase_tree@V?$allocator@U?$_Tree_node@U?$pair@$$CBV?$basic_string@DU?$char_traits@D@std@@V?$allocator@D@2@@std@@PEAVMaster_info@@@std@@PEAX@std@@@std@@@?$_Tree_val@U?$_Tree_simple_types@U?$pair@$$CBV?$basic_string@DU?$char_traits@D@std@@V?$allocator@D@2@@std@@PEAVMaster_info@@@std@@@std@@@std@@QEAAXAEAV?$allocator@U?$_Tree_node@U?$pair@$$CBV?$basic_string@DU?$char_traits@D@std@@V?$allocator@D@2@@std@@PEAVMaster_info@@@std@@PEAX@std@@@1@PEAU?$_Tree_node@U?$pair@$$CBV?$basic_string@DU?$char_traits@D@std@@V?$allocator@D@2@@std@@PEAVMaster_info@@@std@@PEAX@1@@Z
??$_Freenode0@V?$allocator@U?$_Tree_node@U?$pair@$$CBV?$basic_string@DU?$char_traits@D@std@@V?$allocator@D@2@@std@@PEAVMaster_info@@@std@@PEAX@std@@@std@@@?$_Tree_node@U?$pair@$$CBV?$basic_string@DU?$char_traits@D@std@@V?$allocator@D@2@@std@@PEAVMaster_info@@@std@@PEAX@std@@SAXAEAV?$allocator@U?$_Tree_node@U?$pair@$$CBV?$basic_string@DU?$char_traits@D@std@@V?$allocator@D@2@@std@@PEAVMaster_info@@@std@@PEAX@std@@@1@PEAU01@@Z
??$_Erase_tree@V?$allocator@U?$_Tree_node@U?$pair@$$CBHV?$map@V?$basic_string@DU?$char_traits@D@std@@V?$allocator@D@2@@std@@PEAVMaster_info@@U?$less@V?$basic_string@DU?$char_traits@D@std@@V?$allocator@D@2@@std@@@2@V?$allocator@U?$pair@$$CBV?$basic_string@DU?$char_traits@D@std@@V?$allocator@D@2@@std@@PEAVMaster_info@@@std@@@2@@std@@@std@@PEAX@std@@@std@@@?$_Tree_val@U?$_Tree_simple_types@U?$pair@$$CBHV?$map@V?$basic_string@DU?$char_traits@D@std@@V?$allocator@D@2@@std@@PEAVMaster_info@@U?$less@V?$basic_string@DU?$char_traits@D@std@@V?$allocator@D@2@@std@@@2@V?$allocator@U?$pair@$$CBV?$basic_string@DU?$char_traits@D@std@@V?$allocator@D@2@@std@@PEAVMaster_info@@@std@@@2@@std@@@std@@@std@@@std@@QEAAXAEAV?$allocator@U?$_Tree_node@U?$pair@$$CBHV?$map@V?$basic_string@DU?$char_traits@D@std@@V?$allocator@D@2@@std@@PEAVMaster_info@@U?$less@V?$basic_string@DU?$char_traits@D@std@@V?$allocator@D@2@@std@@@2@V?$allocator@U?$pair@$$CBV?$basic_string@DU?$char_traits@D@std@@V?$allocator@D@2@@std@@PEAVMaster_info@@@std@@@2@@std@@@std@@PEAX@std@@@1@PEAU?$_Tree_node@U?$pair@$$CBHV?$map@V?$basic_string@DU?$char_traits@D@std@@V?$allocator@D@2@@std@@PEAVMaster_info@@U?$less@V?$basic_string@DU?$char_traits@D@std@@V?$allocator@D@2@@std@@@2@V?$allocator@U?$pair@$$CBV?$basic_string@DU?$char_traits@D@std@@V?$allocator@D@2@@std@@PEAVMaster_info@@@std@@@2@@std@@@std@@PEAX@1@@Z
??$_Freenode0@V?$allocator@U?$_Tree_node@U?$pair@$$CBHV?$map@V?$basic_string@DU?$char_traits@D@std@@V?$allocator@D@2@@std@@PEAVMaster_info@@U?$less@V?$basic_string@DU?$char_traits@D@std@@V?$allocator@D@2@@std@@@2@V?$allocator@U?$pair@$$CBV?$basic_string@DU?$char_traits@D@std@@V?$allocator@D@2@@std@@PEAVMaster_info@@@std@@@2@@std@@@std@@PEAX@std@@@std@@@?$_Tree_node@U?$pair@$$CBHV?$map@V?$basic_string@DU?$char_traits@D@std@@V?$allocator@D@2@@std@@PEAVMaster_info@@U?$less@V?$basic_string@DU?$char_traits@D@std@@V?$allocator@D@2@@std@@@2@V?$allocator@U?$pair@$$CBV?$basic_string@DU?$char_traits@D@std@@V?$allocator@D@2@@std@@PEAVMaster_info@@@std@@@2@@std@@@std@@PEAX@std@@SAXAEAV?$allocator@U?$_Tree_node@U?$pair@$$CBHV?$map@V?$basic_string@DU?$char_traits@D@std@@V?$allocator@D@2@@std@@PEAVMaster_info@@U?$less@V?$basic_string@DU?$char_traits@D@std@@V?$allocator@D@2@@std@@@2@V?$allocator@U?$pair@$$CBV?$basic_string@DU?$char_traits@D@std@@V?$allocator@D@2@@std@@PEAVMaster_info@@@std@@@2@@std@@@std@@PEAX@std@@@1@PEAU01@@Z
??$_Construct_in_place@PEAU?$_Tree_node@U?$pair@$$CBV?$basic_string@DU?$char_traits@D@std@@V?$allocator@D@2@@std@@PEAVMaster_info@@@std@@PEAX@std@@AEBQEAU12@@std@@YAXAEAPEAU?$_Tree_node@U?$pair@$$CBV?$basic_string@DU?$char_traits@D@std@@V?$allocator@D@2@@std@@PEAVMaster_info@@@std@@PEAX@0@AEBQEAU10@@Z
??$_Construct_in_place@PEAU?$_Tree_node@U?$pair@$$CBHV?$map@V?$basic_string@DU?$char_traits@D@std@@V?$allocator@D@2@@std@@PEAVMaster_info@@U?$less@V?$basic_string@DU?$char_traits@D@std@@V?$allocator@D@2@@std@@@2@V?$allocator@U?$pair@$$CBV?$basic_string@DU?$char_traits@D@std@@V?$allocator@D@2@@std@@PEAVMaster_info@@@std@@@2@@std@@@std@@PEAX@std@@AEBQEAU12@@std@@YAXAEAPEAU?$_Tree_node@U?$pair@$$CBHV?$map@V?$basic_string@DU?$char_traits@D@std@@V?$allocator@D@2@@std@@PEAVMaster_info@@U?$less@V?$basic_string@DU?$char_traits@D@std@@V?$allocator@D@2@@std@@@2@V?$allocator@U?$pair@$$CBV?$basic_string@DU?$char_traits@D@std@@V?$allocator@D@2@@std@@PEAVMaster_info@@@std@@@2@@std@@@std@@PEAX@0@AEBQEAU10@@Z
??$_Freenode@V?$allocator@U?$_Tree_node@U?$pair@$$CBV?$basic_string@DU?$char_traits@D@std@@V?$allocator@D@2@@std@@PEAVMaster_info@@@std@@PEAX@std@@@std@@@?$_Tree_node@U?$pair@$$CBV?$basic_string@DU?$char_traits@D@std@@V?$allocator@D@2@@std@@PEAVMaster_info@@@std@@PEAX@std@@SAXAEAV?$allocator@U?$_Tree_node@U?$pair@$$CBV?$basic_string@DU?$char_traits@D@std@@V?$allocator@D@2@@std@@PEAVMaster_info@@@std@@PEAX@std@@@1@PEAU01@@Z
?_Allocate@?$_Alloc_construct_ptr@V?$allocator@U?$_Tree_node@U?$pair@$$CBHV?$map@V?$basic_string@DU?$char_traits@D@std@@V?$allocator@D@2@@std@@PEAVMaster_info@@U?$less@V?$basic_string@DU?$char_traits@D@std@@V?$allocator@D@2@@std@@@2@V?$allocator@U?$pair@$$CBV?$basic_string@DU?$char_traits@D@std@@V?$allocator@D@2@@std@@PEAVMaster_info@@@std@@@2@@std@@@std@@PEAX@std@@@std@@@std@@QEAAXXZ
??1?$_Alloc_construct_ptr@V?$allocator@U?$_Tree_node@U?$pair@$$CBHV?$map@V?$basic_string@DU?$char_traits@D@std@@V?$allocator@D@2@@std@@PEAVMaster_info@@U?$less@V?$basic_string@DU?$char_traits@D@std@@V?$allocator@D@2@@std@@@2@V?$allocator@U?$pair@$$CBV?$basic_string@DU?$char_traits@D@std@@V?$allocator@D@2@@std@@PEAVMaster_info@@@std@@@2@@std@@@std@@PEAX@std@@@std@@@std@@QEAA@XZ
??1?$_Tree_temp_node_alloc@V?$allocator@U?$_Tree_node@U?$pair@$$CBHV?$map@V?$basic_string@DU?$char_traits@D@std@@V?$allocator@D@2@@std@@PEAVMaster_info@@U?$less@V?$basic_string@DU?$char_traits@D@std@@V?$allocator@D@2@@std@@@2@V?$allocator@U?$pair@$$CBV?$basic_string@DU?$char_traits@D@std@@V?$allocator@D@2@@std@@PEAVMaster_info@@@std@@@2@@std@@@std@@PEAX@std@@@std@@@std@@QEAA@XZ
??1?$_Tree_temp_node@V?$allocator@U?$_Tree_node@U?$pair@$$CBHV?$map@V?$basic_string@DU?$char_traits@D@std@@V?$allocator@D@2@@std@@PEAVMaster_info@@U?$less@V?$basic_string@DU?$char_traits@D@std@@V?$allocator@D@2@@std@@@2@V?$allocator@U?$pair@$$CBV?$basic_string@DU?$char_traits@D@std@@V?$allocator@D@2@@std@@PEAVMaster_info@@@std@@@2@@std@@@std@@PEAX@std@@@std@@@std@@QEAA@XZ
??$?0U?$pair@$$CBHV?$map@V?$basic_string@DU?$char_traits@D@std@@V?$allocator@D@2@@std@@PEAVMaster_info@@U?$less@V?$basic_string@DU?$char_traits@D@std@@V?$allocator@D@2@@std@@@2@V?$allocator@U?$pair@$$CBV?$basic_string@DU?$char_traits@D@std@@V?$allocator@D@2@@std@@PEAVMaster_info@@@std@@@2@@std@@@std@@@?$_Tree_temp_node@V?$allocator@U?$_Tree_node@U?$pair@$$CBHV?$map@V?$basic_string@DU?$char_traits@D@std@@V?$allocator@D@2@@std@@PEAVMaster_info@@U?$less@V?$basic_string@DU?$char_traits@D@std@@V?$allocator@D@2@@std@@@2@V?$allocator@U?$pair@$$CBV?$basic_string@DU?$char_traits@D@std@@V?$allocator@D@2@@std@@PEAVMaster_info@@@std@@@2@@std@@@std@@PEAX@std@@@std@@@std@@QEAA@AEAV?$allocator@U?$_Tree_node@U?$pair@$$CBHV?$map@V?$basic_string@DU?$char_traits@D@std@@V?$allocator@D@2@@std@@PEAVMaster_info@@U?$less@V?$basic_string@DU?$char_traits@D@std@@V?$allocator@D@2@@std@@@2@V?$allocator@U?$pair@$$CBV?$basic_string@DU?$char_traits@D@std@@V?$allocator@D@2@@std@@PEAVMaster_info@@@std@@@2@@std@@@std@@PEAX@std@@@1@PEAU?$_Tree_node@U?$pair@$$CBHV?$map@V?$basic_string@DU?$char_traits@D@std@@V?$allocator@D@2@@std@@PEAVMaster_info@@U?$less@V?$basic_string@DU?$char_traits@D@std@@V?$allocator@D@2@@std@@@2@V?$allocator@U?$pair@$$CBV?$basic_string@DU?$char_traits@D@std@@V?$allocator@D@2@@std@@PEAVMaster_info@@@std@@@2@@std@@@std@@PEAX@1@$$QEAU?$pair@$$CBHV?$map@V?$basic_string@DU?$char_traits@D@std@@V?$allocator@D@2@@std@@PEAVMaster_info@@U?$less@V?$basic_string@DU?$char_traits@D@std@@V?$allocator@D@2@@std@@@2@V?$allocator@U?$pair@$$CBV?$basic_string@DU?$char_traits@D@std@@V?$allocator@D@2@@std@@PEAVMaster_info@@@std@@@2@@std@@@1@@Z
?_Allocate@?$_Alloc_construct_ptr@V?$allocator@U?$_Tree_node@U?$pair@$$CBV?$basic_string@DU?$char_traits@D@std@@V?$allocator@D@2@@std@@PEAVMaster_info@@@std@@PEAX@std@@@std@@@std@@QEAAXXZ
??1?$_Alloc_construct_ptr@V?$allocator@U?$_Tree_node@U?$pair@$$CBV?$basic_string@DU?$char_traits@D@std@@V?$allocator@D@2@@std@@PEAVMaster_info@@@std@@PEAX@std@@@std@@@std@@QEAA@XZ
??1?$_Tree_temp_node_alloc@V?$allocator@U?$_Tree_node@U?$pair@$$CBV?$basic_string@DU?$char_traits@D@std@@V?$allocator@D@2@@std@@PEAVMaster_info@@@std@@PEAX@std@@@std@@@std@@QEAA@XZ
??1?$_Tree_temp_node@V?$allocator@U?$_Tree_node@U?$pair@$$CBV?$basic_string@DU?$char_traits@D@std@@V?$allocator@D@2@@std@@PEAVMaster_info@@@std@@PEAX@std@@@std@@@std@@QEAA@XZ
??$?0U?$pair@$$CBV?$basic_string@DU?$char_traits@D@std@@V?$allocator@D@2@@std@@PEAVMaster_info@@@std@@@?$_Tree_temp_node@V?$allocator@U?$_Tree_node@U?$pair@$$CBV?$basic_string@DU?$char_traits@D@std@@V?$allocator@D@2@@std@@PEAVMaster_info@@@std@@PEAX@std@@@std@@@std@@QEAA@AEAV?$allocator@U?$_Tree_node@U?$pair@$$CBV?$basic_string@DU?$char_traits@D@std@@V?$allocator@D@2@@std@@PEAVMaster_info@@@std@@PEAX@std@@@1@PEAU?$_Tree_node@U?$pair@$$CBV?$basic_string@DU?$char_traits@D@std@@V?$allocator@D@2@@std@@PEAVMaster_info@@@std@@PEAX@1@$$QEAU?$pair@$$CBV?$basic_string@DU?$char_traits@D@std@@V?$allocator@D@2@@std@@PEAVMaster_info@@@1@@Z
??$_Destroy_in_place@PEAU?$_Tree_node@U?$pair@$$CBV?$basic_string@DU?$char_traits@D@std@@V?$allocator@D@2@@std@@PEAVMaster_info@@@std@@PEAX@std@@@std@@YAXAEAPEAU?$_Tree_node@U?$pair@$$CBV?$basic_string@DU?$char_traits@D@std@@V?$allocator@D@2@@std@@PEAVMaster_info@@@std@@PEAX@0@@Z
??$_Freenode@V?$allocator@U?$_Tree_node@U?$pair@$$CBHV?$map@V?$basic_string@DU?$char_traits@D@std@@V?$allocator@D@2@@std@@PEAVMaster_info@@U?$less@V?$basic_string@DU?$char_traits@D@std@@V?$allocator@D@2@@std@@@2@V?$allocator@U?$pair@$$CBV?$basic_string@DU?$char_traits@D@std@@V?$allocator@D@2@@std@@PEAVMaster_info@@@std@@@2@@std@@@std@@PEAX@std@@@std@@@?$_Tree_node@U?$pair@$$CBHV?$map@V?$basic_string@DU?$char_traits@D@std@@V?$allocator@D@2@@std@@PEAVMaster_info@@U?$less@V?$basic_string@DU?$char_traits@D@std@@V?$allocator@D@2@@std@@@2@V?$allocator@U?$pair@$$CBV?$basic_string@DU?$char_traits@D@std@@V?$allocator@D@2@@std@@PEAVMaster_info@@@std@@@2@@std@@@std@@PEAX@std@@SAXAEAV?$allocator@U?$_Tree_node@U?$pair@$$CBHV?$map@V?$basic_string@DU?$char_traits@D@std@@V?$allocator@D@2@@std@@PEAVMaster_info@@U?$less@V?$basic_string@DU?$char_traits@D@std@@V?$allocator@D@2@@std@@@2@V?$allocator@U?$pair@$$CBV?$basic_string@DU?$char_traits@D@std@@V?$allocator@D@2@@std@@PEAVMaster_info@@@std@@@2@@std@@@std@@PEAX@std@@@1@PEAU01@@Z
??$_Destroy_in_place@PEAU?$_Tree_node@U?$pair@$$CBHV?$map@V?$basic_string@DU?$char_traits@D@std@@V?$allocator@D@2@@std@@PEAVMaster_info@@U?$less@V?$basic_string@DU?$char_traits@D@std@@V?$allocator@D@2@@std@@@2@V?$allocator@U?$pair@$$CBV?$basic_string@DU?$char_traits@D@std@@V?$allocator@D@2@@std@@PEAVMaster_info@@@std@@@2@@std@@@std@@PEAX@std@@@std@@YAXAEAPEAU?$_Tree_node@U?$pair@$$CBHV?$map@V?$basic_string@DU?$char_traits@D@std@@V?$allocator@D@2@@std@@PEAVMaster_info@@U?$less@V?$basic_string@DU?$char_traits@D@std@@V?$allocator@D@2@@std@@@2@V?$allocator@U?$pair@$$CBV?$basic_string@DU?$char_traits@D@std@@V?$allocator@D@2@@std@@PEAVMaster_info@@@std@@@2@@std@@@std@@PEAX@0@@Z
??$_Construct_in_place@PEAU?$_Tree_node@U?$pair@$$CBHV?$map@V?$basic_string@DU?$char_traits@D@std@@V?$allocator@D@2@@std@@PEAVMaster_info@@U?$less@V?$basic_string@DU?$char_traits@D@std@@V?$allocator@D@2@@std@@@2@V?$allocator@U?$pair@$$CBV?$basic_string@DU?$char_traits@D@std@@V?$allocator@D@2@@std@@PEAVMaster_info@@@std@@@2@@std@@@std@@PEAX@std@@AEAPEAU12@@std@@YAXAEAPEAU?$_Tree_node@U?$pair@$$CBHV?$map@V?$basic_string@DU?$char_traits@D@std@@V?$allocator@D@2@@std@@PEAVMaster_info@@U?$less@V?$basic_string@DU?$char_traits@D@std@@V?$allocator@D@2@@std@@@2@V?$allocator@U?$pair@$$CBV?$basic_string@DU?$char_traits@D@std@@V?$allocator@D@2@@std@@PEAVMaster_info@@@std@@@2@@std@@@std@@PEAX@0@0@Z
??$_Construct_in_place@PEAU?$_Tree_node@U?$pair@$$CBV?$basic_string@DU?$char_traits@D@std@@V?$allocator@D@2@@std@@PEAVMaster_info@@@std@@PEAX@std@@AEAPEAU12@@std@@YAXAEAPEAU?$_Tree_node@U?$pair@$$CBV?$basic_string@DU?$char_traits@D@std@@V?$allocator@D@2@@std@@PEAVMaster_info@@@std@@PEAX@0@0@Z
?instance_count@?1???0Multisource_info@@QEAA@XZ@4HA DATA
?channel_map@@3VMultisource_info@@A DATA
??0Commit_order_manager@@QEAA@I@Z
??1Commit_order_manager@@QEAA@XZ
?register_trx@Commit_order_manager@@QEAAXPEAVSlave_worker@@@Z
?wait_for_its_turn@Commit_order_manager@@QEAA_NPEAVSlave_worker@@_N@Z
?unregister_trx@Commit_order_manager@@QEAAXPEAVSlave_worker@@@Z
?report_rollback@Commit_order_manager@@QEAAXPEAVSlave_worker@@@Z
?report_deadlock@Commit_order_manager@@QEAAXPEAVSlave_worker@@@Z
??1?$vector@Uworker_info@Commit_order_manager@@V?$allocator@Uworker_info@Commit_order_manager@@@std@@@std@@QEAA@XZ
??A?$vector@Uworker_info@Commit_order_manager@@V?$allocator@Uworker_info@Commit_order_manager@@@std@@@std@@QEAAAEAUworker_info@Commit_order_manager@@_K@Z
?_Buy_raw@?$vector@Uworker_info@Commit_order_manager@@V?$allocator@Uworker_info@Commit_order_manager@@@std@@@std@@AEAAX_K@Z
?_Buy_nonzero@?$vector@Uworker_info@Commit_order_manager@@V?$allocator@Uworker_info@Commit_order_manager@@@std@@@std@@AEAAX_K@Z
?_Tidy@?$vector@Uworker_info@Commit_order_manager@@V?$allocator@Uworker_info@Commit_order_manager@@@std@@@std@@AEAAXXZ
?_Xlength@?$vector@Uworker_info@Commit_order_manager@@V?$allocator@Uworker_info@Commit_order_manager@@@std@@@std@@CAXXZ
?queue_pop@Commit_order_manager@@AEAAXXZ
?queue_push@Commit_order_manager@@AEAAXI@Z
??$_Construct_n_copies_of_ty@U_Value_init_tag@std@@@?$vector@Uworker_info@Commit_order_manager@@V?$allocator@Uworker_info@Commit_order_manager@@@std@@@std@@AEAAX_KAEBU_Value_init_tag@1@@Z
??$_Destroy_range@V?$allocator@Uworker_info@Commit_order_manager@@@std@@@std@@YAXPEAUworker_info@Commit_order_manager@@QEAU12@AEAV?$allocator@Uworker_info@Commit_order_manager@@@0@@Z
??1?$_Tidy_guard@V?$vector@Uworker_info@Commit_order_manager@@V?$allocator@Uworker_info@Commit_order_manager@@@std@@@std@@@std@@QEAA@XZ
??$_Uninitialized_value_construct_n@V?$allocator@Uworker_info@Commit_order_manager@@@std@@@std@@YAPEAUworker_info@Commit_order_manager@@PEAU12@_KAEAV?$allocator@Uworker_info@Commit_order_manager@@@0@@Z
?schedule_next_event@Mts_submode_database@@UEAAHPEAVRelay_log_info@@PEAVLog_event@@@Z
?attach_temp_tables@Mts_submode_database@@UEAAXPEAVTHD@@PEBVRelay_log_info@@PEAVQuery_log_event@@@Z
?detach_temp_tables@Mts_submode_database@@UEAAXPEAVTHD@@PEBVRelay_log_info@@PEAVQuery_log_event@@@Z
?get_least_occupied_worker@Mts_submode_database@@UEAAPEAVSlave_worker@@PEAVRelay_log_info@@PEAV?$Prealloced_array@PEAVSlave_worker@@$03$00@@PEAVLog_event@@@Z
?wait_for_workers_to_finish@Mts_submode_database@@UEAAHPEAVRelay_log_info@@PEAVSlave_worker@@@Z
?get_server_and_thread_id@Mts_submode_logical_clock@@IEAA?AU?$pair@II@std@@PEAUTABLE@@@Z
?get_free_worker@Mts_submode_logical_clock@@IEAAPEAVSlave_worker@@PEAVRelay_log_info@@@Z
??0Mts_submode_logical_clock@@QEAA@XZ
?schedule_next_event@Mts_submode_logical_clock@@UEAAHPEAVRelay_log_info@@PEAVLog_event@@@Z
?attach_temp_tables@Mts_submode_logical_clock@@UEAAXPEAVTHD@@PEBVRelay_log_info@@PEAVQuery_log_event@@@Z
?detach_temp_tables@Mts_submode_logical_clock@@UEAAXPEAVTHD@@PEBVRelay_log_info@@PEAVQuery_log_event@@@Z
?get_least_occupied_worker@Mts_submode_logical_clock@@UEAAPEAVSlave_worker@@PEAVRelay_log_info@@PEAV?$Prealloced_array@PEAVSlave_worker@@$03$00@@PEAVLog_event@@@Z
?wait_for_workers_to_finish@Mts_submode_logical_clock@@UEAAHPEAVRelay_log_info@@PEAVSlave_worker@@@Z
?wait_for_last_committed_trx@Mts_submode_logical_clock@@QEAA_NPEAVRelay_log_info@@_J1@Z
?get_lwm_timestamp@Mts_submode_logical_clock@@QEAA_JPEAVRelay_log_info@@_N@Z
??0Rpl_info_dummy@@QEAA@H@Z
?do_init_info@Rpl_info_dummy@@EEAAHXZ
?do_init_info@Rpl_info_dummy@@EEAAHI@Z
?do_check_info@Rpl_info_dummy@@EEAA?AW4enum_return_check@@XZ
?do_check_info@Rpl_info_dummy@@EEAA?AW4enum_return_check@@I@Z
?do_end_info@Rpl_info_dummy@@EEAAXXZ
?do_flush_info@Rpl_info_dummy@@EEAAH_N@Z
?do_remove_info@Rpl_info_dummy@@EEAAHXZ
?do_clean_info@Rpl_info_dummy@@EEAAHXZ
?do_prepare_info_for_read@Rpl_info_dummy@@EEAAHXZ
?do_prepare_info_for_write@Rpl_info_dummy@@EEAAHXZ
?do_set_info@Rpl_info_dummy@@EEAA_NHPEBD@Z
?do_set_info@Rpl_info_dummy@@EEAA_NHPEBE_K@Z
?do_set_info@Rpl_info_dummy@@EEAA_NHH@Z
?do_set_info@Rpl_info_dummy@@EEAA_NHK@Z
?do_set_info@Rpl_info_dummy@@EEAA_NHM@Z
?do_set_info@Rpl_info_dummy@@EEAA_NHPEBVServer_ids@@@Z
?do_get_info@Rpl_info_dummy@@EEAA_NHPEAD_KPEBD@Z
?do_get_info@Rpl_info_dummy@@EEAA_NHPEAE_KPEBE@Z
?do_get_info@Rpl_info_dummy@@EEAA_NHPEAHH@Z
?do_get_info@Rpl_info_dummy@@EEAA_NHPEAKK@Z
?do_get_info@Rpl_info_dummy@@EEAA_NHPEAMM@Z
?do_get_info@Rpl_info_dummy@@EEAA_NHPEAVServer_ids@@PEBV2@@Z
?do_get_description_info@Rpl_info_dummy@@EEAAPEADXZ
?do_is_transactional@Rpl_info_dummy@@EEAA_NXZ
?do_update_is_transactional@Rpl_info_dummy@@EEAA_NXZ
?do_get_rpl_info_type@Rpl_info_dummy@@EEAAIXZ
?info_slave_worker_fields@@3PAPEBDA DATA
?w_rr@@3KA DATA
?mts_debug_concurrent_access@@3IA DATA
?set_current_select@LEX@@QEAAXPEAVst_select_lex@@@Z
??4?$Prealloced_array@PEAVSlave_worker@@$03$00@@QEAAAEAV0@AEBV0@@Z
?reserve@?$Prealloced_array@PEAVSlave_worker@@$03$00@@QEAA_N_K@Z
?push_back@?$Prealloced_array@PEAVSlave_worker@@$03$00@@QEAA_NAEBQEAVSlave_worker@@@Z
?clear@?$Prealloced_array@PEAVSlave_worker@@$03$00@@QEAAXXZ
??0?$Prealloced_array@PEAUst_db_worker_hash_entry@@$03$00@@QEAA@AEBV0@@Z
??0?$Prealloced_array@PEAUst_db_worker_hash_entry@@$03$00@@QEAA@IPEBQEAUst_db_worker_hash_entry@@0@Z
??4?$Prealloced_array@PEAUst_db_worker_hash_entry@@$03$00@@QEAAAEAV0@AEBV0@@Z
??1?$Prealloced_array@PEAUst_db_worker_hash_entry@@$03$00@@QEAA@XZ
?reserve@?$Prealloced_array@PEAUst_db_worker_hash_entry@@$03$00@@QEAA_N_K@Z
?push_back@?$Prealloced_array@PEAUst_db_worker_hash_entry@@$03$00@@QEAA_NAEBQEAUst_db_worker_hash_entry@@@Z
?swap@?$Prealloced_array@PEAUst_db_worker_hash_entry@@$03$00@@QEAAXAEAV1@@Z
?shrink_to_fit@?$Prealloced_array@PEAUst_db_worker_hash_entry@@$03$00@@QEAAXXZ
?clear@?$Prealloced_array@PEAUst_db_worker_hash_entry@@$03$00@@QEAAXXZ
?init_hash_workers@@YA_NPEAVRelay_log_info@@@Z
?destroy_hash_workers@@YAXPEAVRelay_log_info@@@Z
?map_db_to_worker@@YAPEAVSlave_worker@@PEBDPEAVRelay_log_info@@PEAPEAUst_db_worker_hash_entry@@_NPEAV1@@Z
?get_least_occupied_worker@@YAPEAVSlave_worker@@PEAVRelay_log_info@@PEAV?$Prealloced_array@PEAVSlave_worker@@$03$00@@PEAVLog_event@@@Z
?de_queue@?$circular_buffer_queue@Ust_slave_job_group@@@@QEAAKPEAUst_slave_job_group@@@Z
?count_done@Slave_committed_queue@@QEAA_NPEAVRelay_log_info@@@Z
?move_queue_head@Slave_committed_queue@@QEAAKPEAV?$Prealloced_array@PEAVSlave_worker@@$03$00@@@Z
?free_dynamic_items@Slave_committed_queue@@QEAAXXZ
?find_lwm@Slave_committed_queue@@QEAAKPEAPEAUst_slave_job_group@@K@Z
??1?$Prealloced_array@Uslave_job_item@@$00$00@@QEAA@XZ
?back@?$Prealloced_array@Uslave_job_item@@$00$00@@QEAAAEAUslave_job_item@@XZ
?reserve@?$Prealloced_array@Uslave_job_item@@$00$00@@QEAA_N_K@Z
?push_back@?$Prealloced_array@Uslave_job_item@@$00$00@@QEAA_NAEBUslave_job_item@@@Z
?pop_back@?$Prealloced_array@Uslave_job_item@@$00$00@@QEAAXXZ
?resize@?$Prealloced_array@Uslave_job_item@@$00$00@@QEAAX_KAEBUslave_job_item@@@Z
??0Slave_worker@@QEAA@PEAVRelay_log_info@@PEAI1111111IPEBD@Z
??1Slave_worker@@UEAA@XZ
?copy_values_for_PFS@Slave_worker@@QEAAXKW4en_running_state@1@PEAVTHD@@AEBVError@Slave_reporting_capability@@AEBUGtid_specification@@@Z
?init_worker@Slave_worker@@QEAAHPEAVRelay_log_info@@K@Z
?rli_init_info@Slave_worker@@QEAAH_N@Z
?flush_info@Slave_worker@@QEAAH_N@Z
?get_number_worker_fields@Slave_worker@@SA_KXZ
?slave_worker_ends_group@Slave_worker@@QEAAXPEAVLog_event@@H@Z
?get_master_log_name@Slave_worker@@QEAAPEBDXZ
?commit_positions@Slave_worker@@QEAA_NPEAVLog_event@@PEAUst_slave_job_group@@_N@Z
?rollback_positions@Slave_worker@@QEAAXPEAUst_slave_job_group@@@Z
?reset_recovery_info@Slave_worker@@QEAA_NXZ
?set_rli_description_event@Slave_worker@@UEAAXPEAVFormat_description_log_event@@@Z
?slave_worker_exec_event@Slave_worker@@QEAAHPEAVLog_event@@@Z
?retry_transaction@Slave_worker@@QEAA_NI_KI0@Z
?set_info_search_keys@Slave_worker@@UEAA_NPEAVRpl_info_handler@@@Z
?get_c_rli@Slave_worker@@UEAAPEAVRelay_log_info@@XZ
?get_for_channel_str@Slave_worker@@UEBAPEBD_N@Z
?do_report@Slave_worker@@MEBAXW4loglevel@@HPEBDPEAD@Z
?end_info@Slave_worker@@AEAAXXZ
?read_info@Slave_worker@@EEAA_NPEAVRpl_info_handler@@@Z
?write_info@Slave_worker@@EEAA_NPEAVRpl_info_handler@@@Z
?worker_sleep@Slave_worker@@AEAA_NK@Z
?read_and_apply_events@Slave_worker@@AEAA_NI_KI0@Z
?assign_partition_db@Slave_worker@@AEAAXPEAVLog_event@@@Z
?get_table_pk_field_indexes@Slave_worker@@SAPEBIXZ
?get_channel_field_index@Slave_worker@@SAIXZ
??0Retry_context_sentry@Slave_worker@@QEAA@AEAV1@@Z
??1Retry_context_sentry@Slave_worker@@UEAA@XZ
??4Retry_context_sentry@Slave_worker@@QEAAAEAV01@_N@Z
?clean@Retry_context_sentry@Slave_worker@@QEAAXXZ
?head_queue@@YAPEAXPEAVSlave_jobs_queue@@PEAUslave_job_item@@@Z
?handle_slave_worker_stop@@YA_NPEAVSlave_worker@@PEAUslave_job_item@@@Z
?set_max_updated_index_on_stop@@YA_NPEAVSlave_worker@@PEAUslave_job_item@@@Z
?mts_move_temp_table_to_entry@@YAPEAUTABLE@@PEAU1@PEAVTHD@@PEAUst_db_worker_hash_entry@@@Z
?mts_move_temp_tables_to_thd@@YAPEAUTABLE@@PEAVTHD@@PEAU1@@Z
?append_item_to_jobs@@YA_NPEAUslave_job_item@@PEAVSlave_worker@@PEAVRelay_log_info@@@Z
?de_queue@@YAPEAUslave_job_item@@PEAVSlave_jobs_queue@@PEAU1@@Z
??$get_info@PEAHH@Rpl_info_handler@@QEAA_NPEAHH@Z
??$get_info@PEAD@Rpl_info_handler@@QEAA_NPEAD_KQEAD@Z
??$get_info@PEAKK@Rpl_info_handler@@QEAA_NPEAKK@Z
??$get_info@PEAE@Rpl_info_handler@@QEAA_NPEAE_KQEAE@Z
??$set_info@H@Rpl_info_handler@@QEAA_NH@Z
??$set_info@PEAD@Rpl_info_handler@@QEAA_NQEAD@Z
??$set_info@K@Rpl_info_handler@@QEAA_NK@Z
??$set_info@PEAE@Rpl_info_handler@@QEAA_NQEAE_K@Z
get_key
?pop_jobs_item@@YAPEAUslave_job_item@@PEAVSlave_worker@@PEAU1@@Z
?report_error_to_coordinator@@YAXPEAVSlave_worker@@@Z
?slave_worker_exec_job_group@@YAHPEAVSlave_worker@@PEAVRelay_log_info@@@Z
??$swap@V?$Prealloced_array@PEAUst_db_worker_hash_entry@@$03$00@@$0A@@std@@YAXAEAV?$Prealloced_array@PEAUst_db_worker_hash_entry@@$03$00@@0@Z
??0Server_ids@@QEAA@XZ
?back@?$Prealloced_array@K$0BA@$00@@QEAAAEAKXZ
?reserve@?$Prealloced_array@K$0BA@$00@@QEAA_N_K@Z
?push_back@?$Prealloced_array@K$0BA@$00@@QEAA_NAEBK@Z
?pop_back@?$Prealloced_array@K$0BA@$00@@QEAAXXZ
?insert@?$Prealloced_array@K$0BA@$00@@QEAAPEAKPEAKAEBK@Z
?insert_unique@?$Prealloced_array@K$0BA@$00@@QEAA?AU?$pair@PEAK_N@std@@AEBK@Z
?resize@?$Prealloced_array@K$0BA@$00@@QEAAX_KAEBK@Z
?pack_dynamic_ids@Server_ids@@QEAA_NPEAVString@@@Z
?unpack_dynamic_ids@Server_ids@@QEAA_NPEAD@Z
??$copy_backward@PEAKPEAK@std@@YAPEAKPEAK00@Z
??$equal_range@PEAKKU?$less@X@std@@@std@@YA?AU?$pair@PEAKPEAK@0@PEAK0AEBKU?$less@X@0@@Z
??$_Debug_lt_pred@AEAU?$less@X@std@@AEAKAEBK$0A@@std@@YA_NAEAU?$less@X@0@AEAKAEBK@Z
??$lower_bound@PEAKKU?$less@X@std@@@std@@YAPEAKPEAKQEAKAEBKU?$less@X@0@@Z
??$upper_bound@PEAKKU?$less@X@std@@@std@@YAPEAKPEAK0AEBKU?$less@X@0@@Z
??$_Verify_range@K@std@@YAXQEBK0@Z
??$_Copy_backward_memmove@PEAKPEAK@std@@YAPEAKPEAK00@Z
?before_open@Rpl_info_table_access@@UEAAXPEAVTHD@@@Z
?close_table@Rpl_info_table_access@@QEAA_NPEAVTHD@@PEAUTABLE@@PEAVOpen_tables_backup@@_N@Z
?find_info@Rpl_info_table_access@@QEAA?AW4enum_return_id@@PEAVRpl_info_values@@PEAUTABLE@@@Z
?scan_info@Rpl_info_table_access@@QEAA?AW4enum_return_id@@PEAUTABLE@@I@Z
?count_info@Rpl_info_table_access@@QEAA_NPEAUTABLE@@PEAI@Z
?load_info_values@Rpl_info_table_access@@QEAA_NIPEAPEAVField@@PEAVRpl_info_values@@@Z
?store_info_values@Rpl_info_table_access@@QEAA_NIPEAPEAVField@@PEAVRpl_info_values@@@Z
?create_thd@Rpl_info_table_access@@QEAAPEAVTHD@@XZ
?drop_thd@Rpl_info_table_access@@QEAAXPEAVTHD@@@Z
?rli_table_data@Rpl_info_factory@@0Ustruct_table_data@1@A DATA
?rli_file_data@Rpl_info_factory@@0Ustruct_file_data@1@A DATA
?mi_table_data@Rpl_info_factory@@0Ustruct_table_data@1@A DATA
?mi_file_data@Rpl_info_factory@@0Ustruct_file_data@1@A DATA
?worker_table_data@Rpl_info_factory@@0Ustruct_table_data@1@A DATA
?worker_file_data@Rpl_info_factory@@0Ustruct_file_data@1@A DATA
?create_slave_info_objects@Rpl_info_factory@@SA_NIIHPEAVMultisource_info@@@Z
?create_mi_and_rli_objects@Rpl_info_factory@@SAPEAVMaster_info@@IIPEBD_NPEAVMultisource_info@@@Z
?create_mi@Rpl_info_factory@@SAPEAVMaster_info@@IPEBD_N@Z
?change_mi_repository@Rpl_info_factory@@SA_NPEAVMaster_info@@IPEAPEBD@Z
?create_rli@Rpl_info_factory@@SAPEAVRelay_log_info@@I_NPEBD0@Z
?change_rli_repository@Rpl_info_factory@@SA_NPEAVRelay_log_info@@IPEAPEBD@Z
?create_worker@Rpl_info_factory@@SAPEAVSlave_worker@@IIPEAVRelay_log_info@@_N@Z
?reset_workers@Rpl_info_factory@@SA_NPEAVRelay_log_info@@@Z
?init_repository_metadata@Rpl_info_factory@@CAXXZ
?decide_repository@Rpl_info_factory@@CA_NPEAVRpl_info@@IPEAPEAVRpl_info_handler@@1PEAPEBD@Z
?init_repositories@Rpl_info_factory@@CA_NUstruct_table_data@1@Ustruct_file_data@1@IIPEAPEAVRpl_info_handler@@2PEAPEBD@Z
?check_src_repository@Rpl_info_factory@@CA?AW4enum_return_check@@PEAVRpl_info@@IPEAPEAVRpl_info_handler@@@Z
?check_error_repository@Rpl_info_factory@@CA_NPEAVRpl_info@@PEAVRpl_info_handler@@1W4enum_return_check@@2PEAPEBD@Z
?init_repositories@Rpl_info_factory@@CA_NPEAVRpl_info@@PEAPEAVRpl_info_handler@@1PEAPEBD@Z
?scan_repositories@Rpl_info_factory@@CA_NPEAI0Ustruct_table_data@1@Ustruct_file_data@1@PEAPEBD@Z
?load_channel_names_from_repository@Rpl_info_factory@@CA_NAEAV?$vector@V?$basic_string@DU?$char_traits@D@std@@V?$allocator@D@2@@std@@V?$allocator@V?$basic_string@DU?$char_traits@D@std@@V?$allocator@D@2@@std@@@2@@std@@IIPEBDPEA_N@Z
?load_channel_names_from_table@Rpl_info_factory@@CA_NAEAV?$vector@V?$basic_string@DU?$char_traits@D@std@@V?$allocator@D@2@@std@@V?$allocator@V?$basic_string@DU?$char_traits@D@std@@V?$allocator@D@2@@std@@@2@@std@@PEBDPEA_N@Z
??0?$Prealloced_array@PEAVReprepare_observer@@$03$00@@QEAA@I@Z
??1Open_tables_backup@@QEAA@XZ
?deallocate@?$allocator@V?$basic_string@DU?$char_traits@D@std@@V?$allocator@D@2@@std@@@std@@QEAAXQEAV?$basic_string@DU?$char_traits@D@std@@V?$allocator@D@2@@2@_K@Z
??0?$vector@V?$basic_string@DU?$char_traits@D@std@@V?$allocator@D@2@@std@@V?$allocator@V?$basic_string@DU?$char_traits@D@std@@V?$allocator@D@2@@std@@@2@@std@@QEAA@XZ
??1?$vector@V?$basic_string@DU?$char_traits@D@std@@V?$allocator@D@2@@std@@V?$allocator@V?$basic_string@DU?$char_traits@D@std@@V?$allocator@D@2@@std@@@2@@std@@QEAA@XZ
?_Destroy@?$vector@V?$basic_string@DU?$char_traits@D@std@@V?$allocator@D@2@@std@@V?$allocator@V?$basic_string@DU?$char_traits@D@std@@V?$allocator@D@2@@std@@@2@@std@@AEAAXPEAV?$basic_string@DU?$char_traits@D@std@@V?$allocator@D@2@@2@0@Z
?_Calculate_growth@?$vector@V?$basic_string@DU?$char_traits@D@std@@V?$allocator@D@2@@std@@V?$allocator@V?$basic_string@DU?$char_traits@D@std@@V?$allocator@D@2@@std@@@2@@std@@AEBA_K_K@Z
?_Change_array@?$vector@V?$basic_string@DU?$char_traits@D@std@@V?$allocator@D@2@@std@@V?$allocator@V?$basic_string@DU?$char_traits@D@std@@V?$allocator@D@2@@std@@@2@@std@@AEAAXQEAV?$basic_string@DU?$char_traits@D@std@@V?$allocator@D@2@@2@_K1@Z
?_Tidy@?$vector@V?$basic_string@DU?$char_traits@D@std@@V?$allocator@D@2@@std@@V?$allocator@V?$basic_string@DU?$char_traits@D@std@@V?$allocator@D@2@@std@@@2@@std@@AEAAXXZ
?_Xlength@?$vector@V?$basic_string@DU?$char_traits@D@std@@V?$allocator@D@2@@std@@V?$allocator@V?$basic_string@DU?$char_traits@D@std@@V?$allocator@D@2@@std@@@2@@std@@CAXXZ
?_Orphan_range@?$vector@V?$basic_string@DU?$char_traits@D@std@@V?$allocator@D@2@@std@@V?$allocator@V?$basic_string@DU?$char_traits@D@std@@V?$allocator@D@2@@std@@@2@@std@@AEBAXPEAV?$basic_string@DU?$char_traits@D@std@@V?$allocator@D@2@@2@0@Z
??0?$_Vector_const_iterator@V?$_Vector_val@U?$_Simple_types@V?$basic_string@DU?$char_traits@D@std@@V?$allocator@D@2@@std@@@std@@@std@@@std@@QEAA@PEAV?$basic_string@DU?$char_traits@D@std@@V?$allocator@D@2@@1@PEBU_Container_base12@1@@Z
??D?$_Vector_const_iterator@V?$_Vector_val@U?$_Simple_types@V?$basic_string@DU?$char_traits@D@std@@V?$allocator@D@2@@std@@@std@@@std@@@std@@QEBAAEBV?$basic_string@DU?$char_traits@D@std@@V?$allocator@D@2@@1@XZ
??E?$_Vector_const_iterator@V?$_Vector_val@U?$_Simple_types@V?$basic_string@DU?$char_traits@D@std@@V?$allocator@D@2@@std@@@std@@@std@@@std@@QEAAAEAV01@XZ
?_Compat@?$_Vector_const_iterator@V?$_Vector_val@U?$_Simple_types@V?$basic_string@DU?$char_traits@D@std@@V?$allocator@D@2@@std@@@std@@@std@@@std@@QEBAXAEBV12@@Z
??1?$_Vector_iterator@V?$_Vector_val@U?$_Simple_types@V?$basic_string@DU?$char_traits@D@std@@V?$allocator@D@2@@std@@@std@@@std@@@std@@QEAA@XZ
??$emplace_back@V?$basic_string@DU?$char_traits@D@std@@V?$allocator@D@2@@std@@@?$vector@V?$basic_string@DU?$char_traits@D@std@@V?$allocator@D@2@@std@@V?$allocator@V?$basic_string@DU?$char_traits@D@std@@V?$allocator@D@2@@std@@@2@@std@@QEAAX$$QEAV?$basic_string@DU?$char_traits@D@std@@V?$allocator@D@2@@1@@Z
??$_Emplace_back_with_unused_capacity@V?$basic_string@DU?$char_traits@D@std@@V?$allocator@D@2@@std@@@?$vector@V?$basic_string@DU?$char_traits@D@std@@V?$allocator@D@2@@std@@V?$allocator@V?$basic_string@DU?$char_traits@D@std@@V?$allocator@D@2@@std@@@2@@std@@AEAAX$$QEAV?$basic_string@DU?$char_traits@D@std@@V?$allocator@D@2@@1@@Z
??$_Emplace_reallocate@V?$basic_string@DU?$char_traits@D@std@@V?$allocator@D@2@@std@@@?$vector@V?$basic_string@DU?$char_traits@D@std@@V?$allocator@D@2@@std@@V?$allocator@V?$basic_string@DU?$char_traits@D@std@@V?$allocator@D@2@@std@@@2@@std@@QEAAPEAV?$basic_string@DU?$char_traits@D@std@@V?$allocator@D@2@@1@QEAV21@$$QEAV21@@Z
??$emplace_back@AEBV?$basic_string@DU?$char_traits@D@std@@V?$allocator@D@2@@std@@@?$vector@V?$basic_string@DU?$char_traits@D@std@@V?$allocator@D@2@@std@@V?$allocator@V?$basic_string@DU?$char_traits@D@std@@V?$allocator@D@2@@std@@@2@@std@@QEAAXAEBV?$basic_string@DU?$char_traits@D@std@@V?$allocator@D@2@@1@@Z
??$_Emplace_back_with_unused_capacity@AEBV?$basic_string@DU?$char_traits@D@std@@V?$allocator@D@2@@std@@@?$vector@V?$basic_string@DU?$char_traits@D@std@@V?$allocator@D@2@@std@@V?$allocator@V?$basic_string@DU?$char_traits@D@std@@V?$allocator@D@2@@std@@@2@@std@@AEAAXAEBV?$basic_string@DU?$char_traits@D@std@@V?$allocator@D@2@@1@@Z
??$_Emplace_reallocate@AEBV?$basic_string@DU?$char_traits@D@std@@V?$allocator@D@2@@std@@@?$vector@V?$basic_string@DU?$char_traits@D@std@@V?$allocator@D@2@@std@@V?$allocator@V?$basic_string@DU?$char_traits@D@std@@V?$allocator@D@2@@std@@@2@@std@@QEAAPEAV?$basic_string@DU?$char_traits@D@std@@V?$allocator@D@2@@1@QEAV21@AEBV21@@Z
??$_Destroy_range@V?$allocator@V?$basic_string@DU?$char_traits@D@std@@V?$allocator@D@2@@std@@@std@@@std@@YAXPEAV?$basic_string@DU?$char_traits@D@std@@V?$allocator@D@2@@0@QEAV10@AEAV?$allocator@V?$basic_string@DU?$char_traits@D@std@@V?$allocator@D@2@@std@@@0@@Z
??$_Uninitialized_move@PEAV?$basic_string@DU?$char_traits@D@std@@V?$allocator@D@2@@std@@V?$allocator@V?$basic_string@DU?$char_traits@D@std@@V?$allocator@D@2@@std@@@2@@std@@YAPEAV?$basic_string@DU?$char_traits@D@std@@V?$allocator@D@2@@0@QEAV10@0PEAV10@AEAV?$allocator@V?$basic_string@DU?$char_traits@D@std@@V?$allocator@D@2@@std@@@0@@Z
??1?$_Uninitialized_backout_al@V?$allocator@V?$basic_string@DU?$char_traits@D@std@@V?$allocator@D@2@@std@@@std@@@std@@QEAA@XZ
??$_Emplace_back@V?$basic_string@DU?$char_traits@D@std@@V?$allocator@D@2@@std@@@?$_Uninitialized_backout_al@V?$allocator@V?$basic_string@DU?$char_traits@D@std@@V?$allocator@D@2@@std@@@std@@@std@@QEAAX$$QEAV?$basic_string@DU?$char_traits@D@std@@V?$allocator@D@2@@1@@Z
?do_report@Slave_reporting_capability@@MEBAXW4loglevel@@HPEBDPEAD@Z
??1Rpl_info@@UEAA@XZ
??0Rpl_info@@IEAA@PEBDPEAI1111111I0@Z
??0Rpl_info_values@@QEAA@H@Z
??1Rpl_info_values@@UEAA@XZ
?init@Rpl_info_values@@QEAA_NXZ
??0String@@QEAA@XZ
__local_stdio_scanf_options
sscanf
??1Rpl_info_table@@UEAA@XZ
?do_init_info@Rpl_info_table@@EEAAHXZ
?do_init_info@Rpl_info_table@@EEAAHI@Z
?do_init_info@Rpl_info_table@@AEAAHW4enum_find_method@@I@Z
?do_check_info@Rpl_info_table@@EEAA?AW4enum_return_check@@XZ
?do_check_info@Rpl_info_table@@EEAA?AW4enum_return_check@@I@Z
?do_end_info@Rpl_info_table@@EEAAXXZ
?do_flush_info@Rpl_info_table@@EEAAH_N@Z
?do_remove_info@Rpl_info_table@@EEAAHXZ
?do_clean_info@Rpl_info_table@@EEAAHXZ
?do_count_info@Rpl_info_table@@CA_NIPEBD0PEAI@Z
?do_reset_info@Rpl_info_table@@CAHIPEBD00I@Z
?do_prepare_info_for_read@Rpl_info_table@@EEAAHXZ
?do_prepare_info_for_write@Rpl_info_table@@EEAAHXZ
?do_set_info@Rpl_info_table@@EEAA_NHPEBD@Z
?do_set_info@Rpl_info_table@@EEAA_NHPEBE_K@Z
?do_set_info@Rpl_info_table@@EEAA_NHH@Z
?do_set_info@Rpl_info_table@@EEAA_NHK@Z
?do_set_info@Rpl_info_table@@EEAA_NHM@Z
?do_set_info@Rpl_info_table@@EEAA_NHPEBVServer_ids@@@Z
?do_get_info@Rpl_info_table@@EEAA_NHPEAD_KPEBD@Z
?do_get_info@Rpl_info_table@@EEAA_NHPEAE_KPEBE@Z
?do_get_info@Rpl_info_table@@EEAA_NHPEAHH@Z
?do_get_info@Rpl_info_table@@EEAA_NHPEAKK@Z
?do_get_info@Rpl_info_table@@EEAA_NHPEAMM@Z
?do_get_info@Rpl_info_table@@EEAA_NHPEAVServer_ids@@PEBV2@@Z
?do_get_description_info@Rpl_info_table@@EEAAPEADXZ
?do_is_transactional@Rpl_info_table@@EEAA_NXZ
?do_update_is_transactional@Rpl_info_table@@EEAA_NXZ
?do_get_rpl_info_type@Rpl_info_table@@EEAAIXZ
?verify_table_primary_key_fields@Rpl_info_table@@AEAA_NPEAUTABLE@@@Z
??0Rpl_info_table@@AEAA@IPEBD0IPEBI@Z
?_OptionsStorage@?1??__local_stdio_scanf_options@@9@4_KA DATA
??1Rpl_info_file@@UEAA@XZ
?do_init_info@Rpl_info_file@@EEAAHXZ
?do_init_info@Rpl_info_file@@EEAAHI@Z
?do_check_info@Rpl_info_file@@EEAA?AW4enum_return_check@@XZ
?do_check_info@Rpl_info_file@@EEAA?AW4enum_return_check@@I@Z
?do_end_info@Rpl_info_file@@EEAAXXZ
?do_flush_info@Rpl_info_file@@EEAAH_N@Z
?do_remove_info@Rpl_info_file@@EEAAHXZ
?do_clean_info@Rpl_info_file@@EEAAHXZ
?do_count_info@Rpl_info_file@@CA_NHPEBD_NPEAI@Z
?do_reset_info@Rpl_info_file@@CAHHPEBD_N@Z
?do_prepare_info_for_read@Rpl_info_file@@EEAAHXZ
?do_prepare_info_for_write@Rpl_info_file@@EEAAHXZ
?do_set_info@Rpl_info_file@@EEAA_NHPEBD@Z
?do_set_info@Rpl_info_file@@EEAA_NHPEBE_K@Z
?do_set_info@Rpl_info_file@@EEAA_NHH@Z
?do_set_info@Rpl_info_file@@EEAA_NHK@Z
?do_set_info@Rpl_info_file@@EEAA_NHM@Z
?do_set_info@Rpl_info_file@@EEAA_NHPEBVServer_ids@@@Z
?do_get_info@Rpl_info_file@@EEAA_NHPEAD_KPEBD@Z
?do_get_info@Rpl_info_file@@EEAA_NHPEAE_KPEBE@Z
?do_get_info@Rpl_info_file@@EEAA_NHPEAHH@Z
?do_get_info@Rpl_info_file@@EEAA_NHPEAKK@Z
?do_get_info@Rpl_info_file@@EEAA_NHPEAMM@Z
?do_get_info@Rpl_info_file@@EEAA_NHPEAVServer_ids@@PEBV2@@Z
?do_get_description_info@Rpl_info_file@@EEAAPEADXZ
?do_get_rpl_info_type@Rpl_info_file@@EEAAIXZ
?do_is_transactional@Rpl_info_file@@EEAA_NXZ
?do_update_is_transactional@Rpl_info_file@@EEAA_NXZ
??0Rpl_info_file@@AEAA@HPEBD0_N@Z
?init_ulongvar_from_file@@YAHPEAKPEAUst_io_cache@@K@Z
?init_strvar_from_file@@YAHPEAD_KPEAUst_io_cache@@PEBD@Z
?init_intvar_from_file@@YAHPEAHPEAUst_io_cache@@H@Z
?init_floatvar_from_file@@YAHPEAMPEAUst_io_cache@@M@Z
?init_dynarray_intvar_from_file@@YA_NPEAD_KPEAPEADPEAUst_io_cache@@@Z
?get_rpl_info_type_str@Rpl_info_handler@@QEAAPEBDXZ
?set_sync_period@Rpl_info_handler@@QEAAXI@Z
??1Rpl_info_handler@@UEAA@XZ
??0Rpl_info_handler@@IEAA@H@Z
?info_rli_fields@@3PAPEBDA DATA
?wl6292_upgrade_func@@YAXPEAVTHD@@@Z
?wl6292_downgrade_func@@YAXPEAVTHD@@@Z
?compare@?$basic_string@DU?$char_traits@D@std@@V?$allocator@D@2@@std@@QEBAHQEBD@Z
?to_string@Owned_gtids@@QEBAHPEAD@Z
?get_max_string_length@Owned_gtids@@QEBA_KXZ
?to_string@Owned_gtids@@QEBAPEADXZ
?dbug_print@Owned_gtids@@QEBAXPEBD@Z
??1MYSQL_BIN_LOG@@UEAA@XZ
?update_timestamp@Error@Slave_reporting_capability@@QEAAXXZ
?add_gtid_set@Relay_log_info@@QEAA?AW4enum_return_status@@PEBVGtid_set@@@Z
?init_relay_log_pos@Relay_log_info@@QEAAHPEBD_K_NPEAPEBD2@Z
?fill_coord_err_buf@Relay_log_info@@QEBAXW4loglevel@@HPEBD@Z
?clear_until_condition@Relay_log_info@@QEAAXXZ
?inc_group_relay_log_pos@Relay_log_info@@QEAAH_K_N@Z
?wait_for_pos@Relay_log_info@@QEAAHPEAVTHD@@PEAVString@@_JN@Z
?wait_for_gtid_set@Relay_log_info@@QEAAHPEAVTHD@@PEAVString@@N@Z
?wait_for_gtid_set@Relay_log_info@@QEAAHPEAVTHD@@PEBVGtid_set@@N@Z
?close_temporary_tables@Relay_log_info@@QEAAXXZ
?is_until_satisfied@Relay_log_info@@QEAA_NPEAVTHD@@PEAVLog_event@@@Z
?cached_charset_invalidate@Relay_log_info@@QEAAXXZ
?cached_charset_compare@Relay_log_info@@QEBA_NPEAD@Z
?cleanup_context@Relay_log_info@@QEAAXPEAVTHD@@_N@Z
?slave_close_thread_tables@Relay_log_info@@QEAAXPEAVTHD@@@Z
?clear_tables_to_lock@Relay_log_info@@QEAAXXZ
?purge_relay_logs@Relay_log_info@@QEAAHPEAVTHD@@_NPEAPEBD1@Z
??1?$Prealloced_array@PEAVSlave_worker@@$03$00@@QEAA@XZ
??0?$vector@PEAVSlave_worker@@V?$allocator@PEAVSlave_worker@@@std@@@std@@QEAA@XZ
??1?$vector@PEAVSlave_worker@@V?$allocator@PEAVSlave_worker@@@std@@@std@@QEAA@XZ
?clear@?$vector@PEAVSlave_worker@@V?$allocator@PEAVSlave_worker@@@std@@@std@@QEAAXXZ
?_Tidy@?$vector@PEAVSlave_worker@@V?$allocator@PEAVSlave_worker@@@std@@@std@@AEAAXXZ
??1?$Prealloced_array@Uslave_job_item@@$07$00@@QEAA@XZ
??1?$Prealloced_array@K$0BA@$00@@QEAA@XZ
?init_workers@Relay_log_info@@QEAAXK@Z
?deinit_workers@Relay_log_info@@QEAAXXZ
?reset_notified_relay_log_change@Relay_log_info@@QEAAXXZ
?reset_notified_checkpoint@Relay_log_info@@QEAAXK_J_N1@Z
?mts_finalize_recovery@Relay_log_info@@QEAA_NXZ
?stmt_done@Relay_log_info@@QEAAH_K@Z
?count_relay_log_space@Relay_log_info@@QEAAHXZ
?rli_init_info@Relay_log_info@@QEAAHXZ
?end_info@Relay_log_info@@QEAAXXZ
?flush_info@Relay_log_info@@QEAAH_N@Z
?flush_current_log@Relay_log_info@@QEAAHXZ
?set_master_info@Relay_log_info@@QEAAXPEAVMaster_info@@@Z
?relay_log_number_to_name@Relay_log_info@@QEAAXIQEAD@Z
?relay_log_name_to_number@Relay_log_info@@QEAAIPEBD@Z
?get_number_info_rli_fields@Relay_log_info@@SA_KXZ
??0Relay_log_info@@QEAA@_NPEAI1111111IPEBD0@Z
??1Relay_log_info@@UEAA@XZ
?set_rli_description_event@Relay_log_info@@UEAAXPEAVFormat_description_log_event@@@Z
?adapt_to_master_version@Relay_log_info@@QEAAKPEAVFormat_description_log_event@@@Z
?adapt_to_master_version_updown@Relay_log_info@@QEAAKKK@Z
?set_info_search_keys@Relay_log_info@@UEAA_NPEAVRpl_info_handler@@@Z
?get_c_rli@Relay_log_info@@UEAAPEAV1@XZ
?get_for_channel_str@Relay_log_info@@UEBAPEBD_N@Z
?read_info@Relay_log_info@@EEAA_NPEAVRpl_info_handler@@@Z
?write_info@Relay_log_info@@EEAA_NPEAVRpl_info_handler@@@Z
?add_channel_to_relay_log_name@Relay_log_info@@AEAAPEBDPEADIPEBD@Z
?detach_engine_ha_data@Relay_log_info@@QEAAXPEAVTHD@@@Z
?reattach_engine_ha_data@Relay_log_info@@QEAAXPEAVTHD@@@Z
?mysql_show_relaylog_events@@YA_NPEAVTHD@@@Z
?is_mts_db_partitioned@@YA_NPEAVRelay_log_info@@@Z
?get_num_instances@Multisource_info@@QEAAI_N@Z
??E?$_Tree_unchecked_const_iterator@V?$_Tree_val@U?$_Tree_simple_types@U?$pair@$$CBHV?$map@V?$basic_string@DU?$char_traits@D@std@@V?$allocator@D@2@@std@@PEAVMaster_info@@U?$less@V?$basic_string@DU?$char_traits@D@std@@V?$allocator@D@2@@std@@@2@V?$allocator@U?$pair@$$CBV?$basic_string@DU?$char_traits@D@std@@V?$allocator@D@2@@std@@PEAVMaster_info@@@std@@@2@@std@@@std@@@std@@@std@@U_Iterator_base12@2@@std@@QEAAAEAV01@XZ
??E?$_Tree_const_iterator@V?$_Tree_val@U?$_Tree_simple_types@U?$pair@$$CBHV?$map@V?$basic_string@DU?$char_traits@D@std@@V?$allocator@D@2@@std@@PEAVMaster_info@@U?$less@V?$basic_string@DU?$char_traits@D@std@@V?$allocator@D@2@@std@@@2@V?$allocator@U?$pair@$$CBV?$basic_string@DU?$char_traits@D@std@@V?$allocator@D@2@@std@@PEAVMaster_info@@@std@@@2@@std@@@std@@@std@@@std@@@std@@QEAAAEAV01@XZ
??0?$_Tree_const_iterator@V?$_Tree_val@U?$_Tree_simple_types@U?$pair@$$CBHV?$map@V?$basic_string@DU?$char_traits@D@std@@V?$allocator@D@2@@std@@PEAVMaster_info@@U?$less@V?$basic_string@DU?$char_traits@D@std@@V?$allocator@D@2@@std@@@2@V?$allocator@U?$pair@$$CBV?$basic_string@DU?$char_traits@D@std@@V?$allocator@D@2@@std@@PEAVMaster_info@@@std@@@2@@std@@@std@@@std@@@std@@@std@@QEAA@PEAU?$_Tree_node@U?$pair@$$CBHV?$map@V?$basic_string@DU?$char_traits@D@std@@V?$allocator@D@2@@std@@PEAVMaster_info@@U?$less@V?$basic_string@DU?$char_traits@D@std@@V?$allocator@D@2@@std@@@2@V?$allocator@U?$pair@$$CBV?$basic_string@DU?$char_traits@D@std@@V?$allocator@D@2@@std@@PEAVMaster_info@@@std@@@2@@std@@@std@@PEAX@1@PEBV?$_Tree_val@U?$_Tree_simple_types@U?$pair@$$CBHV?$map@V?$basic_string@DU?$char_traits@D@std@@V?$allocator@D@2@@std@@PEAVMaster_info@@U?$less@V?$basic_string@DU?$char_traits@D@std@@V?$allocator@D@2@@std@@@2@V?$allocator@U?$pair@$$CBV?$basic_string@DU?$char_traits@D@std@@V?$allocator@D@2@@std@@PEAVMaster_info@@@std@@@2@@std@@@std@@@std@@@1@@Z
??0?$_Tree_iterator@V?$_Tree_val@U?$_Tree_simple_types@U?$pair@$$CBHV?$map@V?$basic_string@DU?$char_traits@D@std@@V?$allocator@D@2@@std@@PEAVMaster_info@@U?$less@V?$basic_string@DU?$char_traits@D@std@@V?$allocator@D@2@@std@@@2@V?$allocator@U?$pair@$$CBV?$basic_string@DU?$char_traits@D@std@@V?$allocator@D@2@@std@@PEAVMaster_info@@@std@@@2@@std@@@std@@@std@@@std@@@std@@QEAA@AEBV01@@Z
??0?$_Tree_iterator@V?$_Tree_val@U?$_Tree_simple_types@U?$pair@$$CBHV?$map@V?$basic_string@DU?$char_traits@D@std@@V?$allocator@D@2@@std@@PEAVMaster_info@@U?$less@V?$basic_string@DU?$char_traits@D@std@@V?$allocator@D@2@@std@@@2@V?$allocator@U?$pair@$$CBV?$basic_string@DU?$char_traits@D@std@@V?$allocator@D@2@@std@@PEAVMaster_info@@@std@@@2@@std@@@std@@@std@@@std@@@std@@QEAA@$$QEAV01@@Z
??$_Destroy_range@V?$allocator@PEAVSlave_worker@@@std@@@std@@YAXPEAPEAVSlave_worker@@QEAPEAV1@AEAV?$allocator@PEAVSlave_worker@@@0@@Z
?info_mi_fields@@3PAPEBDA DATA
??0Transaction_boundary_parser@@QEAA@XZ
?set_password@Master_info@@QEAAXPEBD@Z
?get_password@Master_info@@QEAA_NPEADPEA_K@Z
?reset_start_info@Master_info@@QEAAXXZ
?mi_init_info@Master_info@@QEAAHXZ
?end_info@Master_info@@QEAAXXZ
?flush_info@Master_info@@QEAAH_N@Z
?set_relay_log_info@Master_info@@QEAAXPEAVRelay_log_info@@@Z
?shall_ignore_server_id@Master_info@@QEAA_NK@Z
??1Master_info@@UEAA@XZ
?get_number_info_mi_fields@Master_info@@SA_KXZ
?get_channel_field_num@Master_info@@SAIXZ
?get_table_pk_field_indexes@Master_info@@SAPEBIXZ
?set_info_search_keys@Master_info@@UEAA_NPEAVRpl_info_handler@@@Z
?get_for_channel_str@Master_info@@UEBAPEBD_N@Z
?init_master_log_pos@Master_info@@QEAAXXZ
?read_info@Master_info@@EEAA_NPEAVRpl_info_handler@@@Z
?write_info@Master_info@@EEAA_NPEAVRpl_info_handler@@@Z
??0Master_info@@AEAA@PEAI0000000IPEBD@Z
?channel_rdlock@Master_info@@QEAAXXZ
?channel_wrlock@Master_info@@QEAAXXZ
?wait_until_no_reference@Master_info@@QEAAXPEAVTHD@@@Z
??$get_info@PEAMM@Rpl_info_handler@@QEAA_NPEAMM@Z
??$get_info@PEAVServer_ids@@PEAV1@@Rpl_info_handler@@QEAA_NPEAVServer_ids@@QEAV1@@Z
??$set_info@M@Rpl_info_handler@@QEAA_NM@Z
??$set_info@PEAVServer_ids@@@Rpl_info_handler@@QEAA_NQEAVServer_ids@@@Z
??$binary_search@PEAKKU?$less@X@std@@@std@@YA_NPEAK0AEBKU?$less@X@0@@Z
??0Slave_reporting_capability@@QEAA@PEBD@Z
?report@Slave_reporting_capability@@UEBAXW4loglevel@@HPEBDZZ
?va_report@Slave_reporting_capability@@QEBAXW4loglevel@@HPEBD1PEAD@Z
?has_temporary_error@Slave_reporting_capability@@QEBAHPEAVTHD@@IPEA_N@Z
??1Slave_reporting_capability@@UEAA@XZ
?slave_error_mask@@3Ust_bitmap@@A DATA
?slave_skip_error_names@@3PADA DATA
?use_slave_mask@@3_NA DATA
?slave_load_tmpdir@@3PEADEA DATA
?relay_log_space_limit@@3_KA DATA
?relay_log_index@@3PEBDEB DATA
?relay_log_basename@@3PEBDEB DATA
?replicate_same_server_id@@3DA DATA
?disconnect_slave_event_count@@3HA DATA
?abort_slave_event_count@@3HA DATA
?sql_slave_skip_counter@@3IA DATA
?clear@?$basic_string@DU?$char_traits@D@std@@V?$allocator@D@2@@std@@QEAAXXZ
?start_slave_cmd@@YA_NPEAVTHD@@@Z
?stop_slave_cmd@@YA_NPEAVTHD@@@Z
?change_master_cmd@@YA_NPEAVTHD@@@Z
?change_master@@YAHPEAVTHD@@PEAVMaster_info@@PEAUst_lex_master_info@@_N@Z
?reset_slave_cmd@@YA_NPEAVTHD@@@Z
?show_slave_status_cmd@@YA_NPEAVTHD@@@Z
?flush_relay_logs_cmd@@YA_NPEAVTHD@@@Z
?is_any_slave_channel_running@@YA_NHPEAVMaster_info@@@Z
?flush_relay_logs@@YA_NPEAVMaster_info@@@Z
?reset_slave@@YAHPEAVTHD@@PEAVMaster_info@@_N@Z
?reset_slave@@YAHPEAVTHD@@@Z
?init_slave@@YAHXZ
?init_recovery@@YAHPEAVMaster_info@@PEAPEBD@Z
?load_mi_and_rli_from_repositories@@YAHPEAVMaster_info@@_NH@Z
?end_info@@YAXPEAVMaster_info@@@Z
?remove_info@@YAHPEAVMaster_info@@@Z
?flush_master_info@@YAHPEAVMaster_info@@_N@Z
?add_slave_skip_errors@@YAXPEBD@Z
?set_slave_skip_errors@@YAXPEAPEAD@Z
?add_new_channel@@YAHPEAPEAVMaster_info@@PEBD@Z
?terminate_slave_threads@@YAHPEAVMaster_info@@HK_N@Z
?start_slave_threads@@YA_N_N0PEAVMaster_info@@H@Z
?start_slave@@YA_NPEAVTHD@@@Z
?stop_slave@@YAHPEAVTHD@@@Z
?start_slave@@YA_NPEAVTHD@@PEAUstruct_slave_connection@@PEAUst_lex_master_info@@HPEAVMaster_info@@_N@Z
?stop_slave@@YAHPEAVTHD@@PEAVMaster_info@@_N2PEA_N@Z
?start_slave_thread@@YA_NIP6APEAXPEAX@ZPEAUst_mysql_mutex@@2PEAUst_mysql_cond@@PECIPECKPEAVMaster_info@@@Z
?show_slave_status@@YA_NPEAVTHD@@PEAVMaster_info@@@Z
?show_slave_status@@YA_NPEAVTHD@@@Z
?rpl_master_has_bug@@YA_NPEBVRelay_log_info@@I_NP6A_NPEBX@Z2@Z
?rpl_master_erroneous_autoinc@@YA_NPEAVTHD@@@Z
?print_slave_db_safe@@YAPEBDPEBD@Z
?skip_load_data_infile@@YAXPEAUst_net@@@Z
?end_slave@@YAXXZ
?delete_slave_info_objects@@YAXXZ
?lock_slave_threads@@YAXPEAVMaster_info@@@Z
?unlock_slave_threads@@YAXPEAVMaster_info@@@Z
?init_thread_mask@@YAXPEAHPEAVMaster_info@@_N@Z
?set_slave_thread_options@@YAXPEAVTHD@@@Z
?set_slave_thread_default_charset@@YAXPEAVTHD@@PEBVRelay_log_info@@@Z
?rotate_relay_log@@YAHPEAVMaster_info@@_N@Z
?queue_event@@YA_NPEAVMaster_info@@PEBDK@Z
handle_slave_io
handle_slave_sql
?net_request_file@@YA_NPEAUst_net@@PEBD@Z
?mts_recovery_groups@@YA_NPEAVRelay_log_info@@@Z
?mts_checkpoint_routine@@YA_NPEAVRelay_log_info@@_K_N2@Z
?sql_slave_killed@@YA_NPEAVTHD@@PEAVRelay_log_info@@@Z
?store@Protocol@@QEAA_NPEAVString@@@Z
?get_max_string_length@Gtid_state@@QEBA_KXZ
?to_string@Gtid_state@@QEBAHPEAD@Z
?to_string@Gtid_state@@QEBAPEADXZ
?dbug_print@Gtid_state@@QEBAXPEBD@Z
?get_ssl@THD@@QEBAPEAUssl_st@@XZ
?set_active_vio@THD@@QEAAXPEAUst_vio@@@Z
?clear_active_vio@THD@@QEAAXXZ
?shall_skip@Log_event@@QEAA?AW4enum_skip_reason@1@PEAVRelay_log_info@@@Z
?set_user@Master_info@@QEAAXPEBD@Z
?is_valid_channel_count@Multisource_info@@QEAA_NXZ
?back@?$Prealloced_array@PEAVSlave_worker@@$03$00@@QEAAAEAPEAVSlave_worker@@XZ
?pop_back@?$Prealloced_array@PEAVSlave_worker@@$03$00@@QEAAXXZ
?erase@?$Prealloced_array@PEAVSlave_worker@@$03$00@@QEAAPEAPEAVSlave_worker@@PEAPEAV2@@Z
?erase@?$Prealloced_array@PEAVSlave_worker@@$03$00@@QEAAPEAPEAVSlave_worker@@_K@Z
?resize@?$Prealloced_array@PEAVSlave_worker@@$03$00@@QEAAX_KAEBQEAVSlave_worker@@@Z
?deallocate@?$allocator@PEAVSlave_worker@@@std@@QEAAXQEAPEAVSlave_worker@@_K@Z
?_Destroy@?$vector@PEAVSlave_worker@@V?$allocator@PEAVSlave_worker@@@std@@@std@@AEAAXPEAPEAVSlave_worker@@0@Z
?_Calculate_growth@?$vector@PEAVSlave_worker@@V?$allocator@PEAVSlave_worker@@@std@@@std@@AEBA_K_K@Z
?_Change_array@?$vector@PEAVSlave_worker@@V?$allocator@PEAVSlave_worker@@@std@@@std@@AEAAXQEAPEAVSlave_worker@@_K1@Z
?_Xlength@?$vector@PEAVSlave_worker@@V?$allocator@PEAVSlave_worker@@@std@@@std@@CAXXZ
?_Orphan_range@?$vector@PEAVSlave_worker@@V?$allocator@PEAVSlave_worker@@@std@@@std@@AEBAXPEAPEAVSlave_worker@@0@Z
?cleanup_after_session@Relay_log_info@@QEAAXXZ
?start_sql_delay@Relay_log_info@@QEAAX_J@Z
??1?$Prealloced_array@Ust_slave_job_group@@$00$00@@QEAA@XZ
?back@?$Prealloced_array@Ust_slave_job_group@@$00$00@@QEAAAEAUst_slave_job_group@@XZ
?reserve@?$Prealloced_array@Ust_slave_job_group@@$00$00@@QEAA_N_K@Z
?push_back@?$Prealloced_array@Ust_slave_job_group@@$00$00@@QEAA_NAEBUst_slave_job_group@@@Z
?pop_back@?$Prealloced_array@Ust_slave_job_group@@$00$00@@QEAAXXZ
?resize@?$Prealloced_array@Ust_slave_job_group@@$00$00@@QEAAX_KAEBUst_slave_job_group@@@Z
??0?$circular_buffer_queue@Ust_slave_job_group@@@@QEAA@K@Z
??1?$circular_buffer_queue@Ust_slave_job_group@@@@QEAA@XZ
?head_queue@?$circular_buffer_queue@Ust_slave_job_group@@@@QEAAPEAUst_slave_job_group@@XZ
??1?$Prealloced_array@_K$00$00@@QEAA@XZ
?back@?$Prealloced_array@_K$00$00@@QEAAAEA_KXZ
?reserve@?$Prealloced_array@_K$00$00@@QEAA_N_K@Z
?push_back@?$Prealloced_array@_K$00$00@@QEAA_NAEB_K@Z
?pop_back@?$Prealloced_array@_K$00$00@@QEAAXXZ
?resize@?$Prealloced_array@_K$00$00@@QEAAX_KAEB_K@Z
??0Slave_committed_queue@@QEAA@PEBDKI@Z
??1Slave_committed_queue@@QEAA@XZ
?io_thread_init_commands@@YAHPEAUst_mysql@@PEAVMaster_info@@@Z
?register_slave_on_master@@YAHPEAUst_mysql@@PEAVMaster_info@@PEA_N@Z
?show_slave_status_metadata@@YAXAEAV?$List@VItem@@@@HH@Z
?show_slave_status_send_data@@YA_NPEAVTHD@@PEAVMaster_info@@PEAD2@Z
?apply_event_and_update_pos@@YA?AW4enum_slave_apply_event_and_update_pos_retval@@PEAPEAVLog_event@@PEAVTHD@@PEAVRelay_log_info@@@Z
handle_slave_worker
??1?$Prealloced_array@Ust_slave_job_group@@$0BA@$00@@QEAA@XZ
?reserve@?$Prealloced_array@Ust_slave_job_group@@$0BA@$00@@QEAA_N_K@Z
?push_back@?$Prealloced_array@Ust_slave_job_group@@$0BA@$00@@QEAA_NAEBUst_slave_job_group@@@Z
??$sort@PEAK@std@@YAXQEAK0@Z
?slave_start_single_worker@@YAHPEAVRelay_log_info@@K@Z
?slave_start_workers@@YAHPEAVRelay_log_info@@KPEA_N@Z
?slave_stop_workers@@YAXPEAVRelay_log_info@@PEA_N@Z
slave_io_thread_detach_vio
??$emplace_back@AEBQEAVSlave_worker@@@?$vector@PEAVSlave_worker@@V?$allocator@PEAVSlave_worker@@@std@@@std@@QEAAXAEBQEAVSlave_worker@@@Z
??$_Emplace_back_with_unused_capacity@AEBQEAVSlave_worker@@@?$vector@PEAVSlave_worker@@V?$allocator@PEAVSlave_worker@@@std@@@std@@AEAAXAEBQEAVSlave_worker@@@Z
??$_Emplace_reallocate@AEBQEAVSlave_worker@@@?$vector@PEAVSlave_worker@@V?$allocator@PEAVSlave_worker@@@std@@@std@@QEAAPEAPEAVSlave_worker@@QEAPEAV2@AEBQEAV2@@Z
??$copy@PEAPEAVSlave_worker@@PEAPEAV1@@std@@YAPEAPEAVSlave_worker@@PEAPEAV1@00@Z
??$_Uninitialized_move@PEAPEAVSlave_worker@@V?$allocator@PEAVSlave_worker@@@std@@@std@@YAPEAPEAVSlave_worker@@QEAPEAV1@0PEAPEAV1@AEAV?$allocator@PEAVSlave_worker@@@0@@Z
??$_Sort_unchecked@PEAKU?$less@X@std@@@std@@YAXPEAK0_JU?$less@X@0@@Z
??$_Verify_range@PEAVSlave_worker@@@std@@YAXQEBQEAVSlave_worker@@0@Z
??$_Copy_memmove@PEAPEAVSlave_worker@@PEAPEAV1@@std@@YAPEAPEAVSlave_worker@@PEAPEAV1@00@Z
??$_Insertion_sort_unchecked@PEAKU?$less@X@std@@@std@@YAPEAKQEAK0U?$less@X@0@@Z
??$_Make_heap_unchecked@PEAKU?$less@X@std@@@std@@YAXPEAK0U?$less@X@0@@Z
??$_Partition_by_median_guess_unchecked@PEAKU?$less@X@std@@@std@@YA?AU?$pair@PEAKPEAK@0@PEAK0U?$less@X@0@@Z
??$_Debug_lt_pred@AEAU?$less@X@std@@AEAKAEAK$0A@@std@@YA_NAEAU?$less@X@0@AEAK1@Z
??$_Pop_heap_hole_by_index@PEAKKU?$less@X@std@@@std@@YAXPEAK_J1$$QEAKU?$less@X@0@@Z
??$_Pop_heap_unchecked@PEAKU?$less@X@std@@@std@@YAXPEAK0U?$less@X@0@@Z
??$_Guess_median_unchecked@PEAKU?$less@X@std@@@std@@YAXPEAK00U?$less@X@0@@Z
??$_Push_heap_by_index@PEAKKU?$less@X@std@@@std@@YAXPEAK_J1$$QEAKU?$less@X@0@@Z
??$_Med3_unchecked@PEAKU?$less@X@std@@@std@@YAXPEAK00U?$less@X@0@@Z
strappend
strcont
my_strchr
my_strcspn
my_xml_parser_create
my_xml_parser_free
my_xml_parse
my_xml_set_value_handler
my_xml_set_enter_handler
my_xml_set_leave_handler
my_xml_set_user_data
my_xml_error_pos
my_xml_error_lineno
my_xml_error_string
strxnmov
strxmov
my_stpnmov
my_stpmov
strmake
strfill
strend
strcend
my_str_malloc DATA
my_str_realloc DATA
my_str_free DATA
my_str_realloc_default
str2int
my_snprintf
my_vsnprintf
my_vsnprintf_ex
my_strtoll10
ll2str
longlong10_to_str
llstr
ullstr
is_prefix
_dig_vec_upper DATA
_dig_vec_lower DATA
int2str
int10_to_str
my_strtod
my_atof
my_fcvt
my_gcvt
internal_str2dec
decimal2string
decimal2ulonglong
ulonglong2decimal
decimal2longlong
longlong2decimal
decimal2double
double2decimal
decimal_actual_fraction
decimal2bin
bin2decimal
decimal2lldiv_t
double2lldiv_t
decimal_size
decimal_bin_size
decimal_result_size
decimal_intg
decimal_add
decimal_sub
decimal_cmp
decimal_mul
decimal_div
decimal_mod
decimal_round
decimal_is_zero
max_decimal
do_mini_left_shift
do_mini_right_shift
decimal_shift
my_string_stack_guard DATA
my_parse_charset_xml
my_string_repertoire
my_charset_is_ascii_based
my_charset_is_8bit_pure_ascii
my_charset_repertoire
my_charset_is_ascii_compatible
my_convert
my_mbcharlen_ptr
my_charset_cp1250_czech_ci DATA
my_charset_utf8_handler DATA
my_charset_utf8mb4_handler DATA
my_unicase_default DATA
my_unicase_turkish DATA
my_unicase_mysql500 DATA
my_unicase_unicode520 DATA
my_uni_ctype DATA
my_charset_filename DATA
my_charset_utf8_general_ci DATA
my_charset_utf8_tolower_ci DATA
my_charset_utf8_bin DATA
my_charset_utf8_general_mysql500_ci DATA
my_charset_utf8mb4_bin DATA
my_charset_utf8mb4_general_ci DATA
my_strnxfrm_unicode
my_strnxfrm_unicode_full_bin
my_strnxfrmlen_unicode_full_bin
my_unicase_pages_unicode520 DATA
my_wildcmp_unicode
my_charset_ujis_japanese_ci DATA
my_charset_ujis_bin DATA
my_caseup_ujis
my_casedn_ujis
my_charset_utf32_handler DATA
my_charset_ucs2_handler DATA
my_charset_ucs2_general_ci DATA
my_charset_ucs2_bin DATA
my_charset_ucs2_general_mysql500_ci DATA
my_charset_utf16_bin DATA
my_charset_utf16_general_ci DATA
my_charset_utf16le_bin DATA
my_charset_utf16le_general_ci DATA
my_charset_utf32_bin DATA
my_charset_utf32_general_ci DATA
my_charset_utf16_handler DATA
my_wildcmp_uca
my_charset_ucs2_icelandic_uca_ci DATA
my_charset_ucs2_latvian_uca_ci DATA
my_charset_ucs2_romanian_uca_ci DATA
my_charset_ucs2_slovenian_uca_ci DATA
my_charset_ucs2_polish_uca_ci DATA
my_charset_ucs2_estonian_uca_ci DATA
my_charset_ucs2_spanish_uca_ci DATA
my_charset_ucs2_swedish_uca_ci DATA
my_charset_ucs2_turkish_uca_ci DATA
my_charset_ucs2_czech_uca_ci DATA
my_charset_ucs2_danish_uca_ci DATA
my_charset_ucs2_lithuanian_uca_ci DATA
my_charset_ucs2_slovak_uca_ci DATA
my_charset_ucs2_spanish2_uca_ci DATA
my_charset_ucs2_roman_uca_ci DATA
my_charset_ucs2_persian_uca_ci DATA
my_charset_ucs2_esperanto_uca_ci DATA
my_charset_ucs2_hungarian_uca_ci DATA
my_charset_ucs2_sinhala_uca_ci DATA
my_charset_ucs2_german2_uca_ci DATA
my_charset_ucs2_croatian_uca_ci DATA
my_charset_ucs2_unicode_520_ci DATA
my_charset_ucs2_vietnamese_ci DATA
my_collation_any_uca_handler DATA
my_charset_utf8_icelandic_uca_ci DATA
my_charset_utf8_latvian_uca_ci DATA
my_charset_utf8_romanian_uca_ci DATA
my_charset_utf8_slovenian_uca_ci DATA
my_charset_utf8_polish_uca_ci DATA
my_charset_utf8_estonian_uca_ci DATA
my_charset_utf8_spanish_uca_ci DATA
my_charset_utf8_swedish_uca_ci DATA
my_charset_utf8_turkish_uca_ci DATA
my_charset_utf8_czech_uca_ci DATA
my_charset_utf8_danish_uca_ci DATA
my_charset_utf8_lithuanian_uca_ci DATA
my_charset_utf8_slovak_uca_ci DATA
my_charset_utf8_spanish2_uca_ci DATA
my_charset_utf8_roman_uca_ci DATA
my_charset_utf8_persian_uca_ci DATA
my_charset_utf8_esperanto_uca_ci DATA
my_charset_utf8_hungarian_uca_ci DATA
my_charset_utf8_sinhala_uca_ci DATA
my_charset_utf8_german2_uca_ci DATA
my_charset_utf8_croatian_uca_ci DATA
my_charset_utf8_unicode_520_ci DATA
my_charset_utf8_vietnamese_ci DATA
my_charset_utf8mb4_icelandic_uca_ci DATA
my_charset_utf8mb4_latvian_uca_ci DATA
my_charset_utf8mb4_romanian_uca_ci DATA
my_charset_utf8mb4_slovenian_uca_ci DATA
my_charset_utf8mb4_polish_uca_ci DATA
my_charset_utf8mb4_estonian_uca_ci DATA
my_charset_utf8mb4_spanish_uca_ci DATA
my_charset_utf8mb4_swedish_uca_ci DATA
my_charset_utf8mb4_turkish_uca_ci DATA
my_charset_utf8mb4_czech_uca_ci DATA
my_charset_utf8mb4_danish_uca_ci DATA
my_charset_utf8mb4_lithuanian_uca_ci DATA
my_charset_utf8mb4_slovak_uca_ci DATA
my_charset_utf8mb4_spanish2_uca_ci DATA
my_charset_utf8mb4_roman_uca_ci DATA
my_charset_utf8mb4_persian_uca_ci DATA
my_charset_utf8mb4_esperanto_uca_ci DATA
my_charset_utf8mb4_hungarian_uca_ci DATA
my_charset_utf8mb4_sinhala_uca_ci DATA
my_charset_utf8mb4_german2_uca_ci DATA
my_charset_utf8mb4_croatian_uca_ci DATA
my_charset_utf8mb4_unicode_520_ci DATA
my_charset_utf8mb4_vietnamese_ci DATA
my_collation_utf32_uca_handler DATA
my_charset_utf32_icelandic_uca_ci DATA
my_charset_utf32_latvian_uca_ci DATA
my_charset_utf32_romanian_uca_ci DATA
my_charset_utf32_slovenian_uca_ci DATA
my_charset_utf32_polish_uca_ci DATA
my_charset_utf32_estonian_uca_ci DATA
my_charset_utf32_spanish_uca_ci DATA
my_charset_utf32_swedish_uca_ci DATA
my_charset_utf32_turkish_uca_ci DATA
my_charset_utf32_czech_uca_ci DATA
my_uca_v400 DATA
my_charset_utf32_danish_uca_ci DATA
my_charset_utf32_lithuanian_uca_ci DATA
my_charset_utf32_slovak_uca_ci DATA
my_charset_utf32_spanish2_uca_ci DATA
my_charset_utf32_roman_uca_ci DATA
my_charset_utf32_persian_uca_ci DATA
my_charset_utf32_esperanto_uca_ci DATA
my_charset_utf32_hungarian_uca_ci DATA
my_charset_utf32_sinhala_uca_ci DATA
my_charset_utf32_german2_uca_ci DATA
my_charset_utf32_croatian_uca_ci DATA
my_charset_utf32_unicode_520_ci DATA
my_collation_ucs2_uca_handler DATA
my_charset_utf32_vietnamese_ci DATA
my_collation_utf16_uca_handler DATA
my_charset_utf16_icelandic_uca_ci DATA
my_charset_utf16_latvian_uca_ci DATA
my_charset_utf16_romanian_uca_ci DATA
my_charset_utf16_slovenian_uca_ci DATA
my_charset_utf16_polish_uca_ci DATA
my_charset_utf16_estonian_uca_ci DATA
my_charset_utf16_spanish_uca_ci DATA
my_charset_utf16_swedish_uca_ci DATA
my_charset_utf16_turkish_uca_ci DATA
my_charset_utf16_czech_uca_ci DATA
my_charset_utf16_danish_uca_ci DATA
my_charset_utf16_lithuanian_uca_ci DATA
my_charset_utf16_slovak_uca_ci DATA
my_charset_utf16_spanish2_uca_ci DATA
my_charset_utf16_roman_uca_ci DATA
my_charset_utf16_persian_uca_ci DATA
my_charset_utf16_esperanto_uca_ci DATA
my_charset_utf16_hungarian_uca_ci DATA
my_charset_utf16_sinhala_uca_ci DATA
my_charset_ucs2_unicode_ci DATA
my_charset_utf16_unicode_ci DATA
my_charset_utf32_unicode_ci DATA
my_charset_utf16_german2_uca_ci DATA
my_charset_utf8_unicode_ci DATA
my_charset_utf8mb4_unicode_ci DATA
my_charset_utf16_croatian_uca_ci DATA
my_charset_utf16_unicode_520_ci DATA
my_charset_utf16_vietnamese_ci DATA
my_collation_gb18030_uca_handler DATA
my_charset_gb18030_unicode_520_ci DATA
page000data DATA
page001data DATA
page002data DATA
page003data DATA
page004data DATA
page005data DATA
page006data DATA
page007data DATA
page009data DATA
page00Adata DATA
page00Bdata DATA
page00Cdata DATA
page00Ddata DATA
page00Edata DATA
page00Fdata DATA
page010data DATA
page011data DATA
page012data DATA
page013data DATA
page014data DATA
page015data DATA
page016data DATA
page017data DATA
page018data DATA
page019data DATA
page01Ddata DATA
page01Edata DATA
page01Fdata DATA
page020data DATA
page021data DATA
page022data DATA
page023data DATA
page024data DATA
page025data DATA
page026data DATA
page027data DATA
page028data DATA
page029data DATA
page02Adata DATA
page02Bdata DATA
page02Edata DATA
page02Fdata DATA
page030data DATA
page031data DATA
page032data DATA
page033data DATA
page04Ddata DATA
page0A0data DATA
page0A1data DATA
page0A2data DATA
page0A3data DATA
page0A4data DATA
page0F9data DATA
page0FAdata DATA
page0FBdata DATA
page0FCdata DATA
page0FDdata DATA
page0FEdata DATA
page0FFdata DATA
uca_length DATA
uca_weight DATA
uca520_p000 DATA
uca520_p001 DATA
uca520_p002 DATA
uca520_p003 DATA
uca520_p004 DATA
uca520_p005 DATA
uca520_p006 DATA
uca520_p007 DATA
uca520_p008 DATA
uca520_p009 DATA
uca520_p00A DATA
uca520_p00B DATA
uca520_p00C DATA
uca520_p00D DATA
uca520_p00E DATA
uca520_p00F DATA
uca520_p010 DATA
uca520_p011 DATA
uca520_p012 DATA
uca520_p013 DATA
uca520_p014 DATA
uca520_p015 DATA
uca520_p016 DATA
uca520_p017 DATA
uca520_p018 DATA
uca520_p019 DATA
uca520_p01A DATA
uca520_p01B DATA
uca520_p01C DATA
uca520_p01D DATA
uca520_p01E DATA
uca520_p01F DATA
uca520_p020 DATA
uca520_p021 DATA
uca520_p022 DATA
uca520_p023 DATA
uca520_p024 DATA
uca520_p025 DATA
uca520_p026 DATA
uca520_p027 DATA
uca520_p028 DATA
uca520_p029 DATA
uca520_p02A DATA
uca520_p02B DATA
uca520_p02C DATA
uca520_p02D DATA
uca520_p02E DATA
uca520_p02F DATA
uca520_p030 DATA
uca520_p031 DATA
uca520_p032 DATA
uca520_p033 DATA
uca520_p04D DATA
uca520_p0A0 DATA
uca520_p0A1 DATA
uca520_p0A2 DATA
uca520_p0A3 DATA
uca520_p0A4 DATA
uca520_p0A5 DATA
uca520_p0A6 DATA
uca520_p0A7 DATA
uca520_p0A8 DATA
uca520_p0A9 DATA
uca520_p0AA DATA
uca520_p0AB DATA
uca520_p0D7 DATA
uca520_p0F9 DATA
uca520_p0FA DATA
uca520_p0FB DATA
uca520_p0FC DATA
uca520_p0FD DATA
uca520_p0FE DATA
uca520_p0FF DATA
uca520_p100 DATA
uca520_p101 DATA
uca520_p102 DATA
uca520_p103 DATA
uca520_p104 DATA
uca520_p108 DATA
uca520_p109 DATA
uca520_p10A DATA
uca520_p10B DATA
uca520_p10C DATA
uca520_p10E DATA
uca520_p110 DATA
uca520_p120 DATA
uca520_p121 DATA
uca520_p122 DATA
uca520_p123 DATA
uca520_p124 DATA
uca520_p130 DATA
uca520_p131 DATA
uca520_p132 DATA
uca520_p133 DATA
uca520_p134 DATA
uca520_p1D0 DATA
uca520_p1D1 DATA
uca520_p1D2 DATA
uca520_p1D3 DATA
uca520_p1D4 DATA
uca520_p1D5 DATA
uca520_p1D6 DATA
uca520_p1D7 DATA
uca520_p1F0 DATA
uca520_p1F1 DATA
uca520_p1F2 DATA
uca520_p2F8 DATA
uca520_p2F9 DATA
uca520_p2FA DATA
uca520_pE00 DATA
uca520_pE01 DATA
uca520_length DATA
uca520_weight DATA
my_uca_v520 DATA
my_uca_can_be_contraction_head
my_uca_can_be_contraction_tail
my_uca_contraction2_weight
my_charset_get_contractions
my_uca_can_be_previous_context_head
my_uca_can_be_previous_context_tail
my_uca_previous_context_find
my_charset_tis620_thai_ci DATA
my_charset_tis620_bin DATA
my_charset_sjis_japanese_ci DATA
my_charset_sjis_bin DATA
my_collation_8bit_simple_ci_handler DATA
my_charset_8bit_handler DATA
my_charset_ascii_handler DATA
my_strnxfrm_simple
my_strnxfrmlen_simple
my_strnncoll_simple
my_strnncollsp_simple
my_hash_sort_simple
my_lengthsp_8bit
my_instr_simple
my_caseup_str_8bit
my_casedn_str_8bit
my_caseup_8bit
my_casedn_8bit
my_strcasecmp_8bit
my_mb_wc_8bit
my_wc_mb_8bit
my_mb_ctype_8bit
my_scan_8bit
my_snprintf_8bit
my_strntol_8bit
my_strntoul_8bit
my_strntoll_8bit
my_strntoull_8bit
my_strntod_8bit
my_long10_to_str_8bit
my_longlong10_to_str_8bit
my_strtoll10_8bit
my_strntoull10rnd_8bit
my_fill_8bit
my_like_range_simple
my_wildcmp_8bit
my_numchars_8bit
my_numcells_8bit
my_charpos_8bit
my_well_formed_len_8bit
my_propagate_simple
my_well_formed_len_ascii
my_propagate_complex
my_strxfrm_flag_normalize
my_strxfrm_desc_and_reverse
my_strxfrm_pad_desc_and_reverse
my_collation_mb_bin_handler DATA
my_like_range_mb
my_instr_mb
my_strnncoll_mb_bin
my_strnncollsp_mb_bin
my_wildcmp_mb_bin
my_strcasecmp_mb_bin
my_hash_sort_mb_bin
my_strnxfrm_mb
my_mb_ctype_mb
my_like_range_generic
my_caseup_str_mb
my_casedn_str_mb
my_caseup_mb
my_casedn_mb
my_caseup_mb_varlen
my_casedn_mb_varlen
my_strcasecmp_mb
my_wildcmp_mb
my_numchars_mb
my_numcells_mb
my_charpos_mb
my_well_formed_len_mb
my_charset_latin1 DATA
my_charset_latin1_german2_ci DATA
my_charset_latin1_bin DATA
my_hash_sort_latin1_de
my_charset_gb18030_chinese_ci DATA
my_charset_gb18030_bin DATA
my_strnxfrm_gb18030
my_charset_gb18030_uca_handler DATA
my_charset_gbk_chinese_ci DATA
my_charset_gbk_bin DATA
my_strnncoll_gbk
my_strnncoll_gbk_internal
my_charset_gb2312_chinese_ci DATA
my_charset_gb2312_bin DATA
compiled_charsets DATA
my_charset_eucjpms_japanese_ci DATA
my_charset_eucjpms_bin DATA
my_charset_euckr_korean_ci DATA
my_charset_euckr_bin DATA
my_charset_latin2_czech_ci DATA
my_charset_cp932_japanese_ci DATA
my_charset_cp932_bin DATA
my_caseinfo_cp932 DATA
my_collation_8bit_bin_handler DATA
my_charset_bin DATA
my_wildcmp_bin
my_mbcharlen_8bit
my_lengthsp_binary
my_hash_sort_8bit_bin
my_hash_sort_bin
my_charset_big5_chinese_ci DATA
my_charset_big5_bin DATA
bchange
vio_read_shared_memory
vio_write_shared_memory
vio_is_connected_shared_memory
vio_shutdown_shared_memory
vio_delete_shared_memory
vio_read_pipe
vio_write_pipe
vio_is_connected_pipe
vio_shutdown_pipe
sslGetErrString
new_VioSSLConnectorFd
process_tls_version
new_VioSSLAcceptorFd
free_vio_ssl_acceptor_fd
vio_ssl_end
ssl_start
sslaccept
sslconnect
vio_ssl_read
vio_ssl_write
vio_ssl_shutdown
vio_ssl_delete
vio_ssl_has_data
IN6_IS_ADDR_V4MAPPED
IN6_IS_ADDR_V4COMPAT
vio_shutdown
vio_read
vio_read_buff
vio_write
vio_fastsend
vio_keepalive
vio_should_retry
vio_was_timeout
vio_description
vio_type
vio_errno
vio_fd
vio_peer_addr
vio_io_wait
vio_is_connected
vio_pending
vio_socket_connect
vio_get_normalized_ip_string
vio_is_no_name_error
vio_getnameinfo
vio_buff_has_data
vio_socket_io_wait
vio_socket_timeout
?buff@?1??gai_strerrorA@@9@9 DATA
key_memory_vio DATA
key_memory_vio_read_buffer DATA
key_memory_vio_ssl_fd DATA
init_vio_psi_keys
get_vio_type_name
vio_new
mysql_socket_vio_new
vio_new_win32pipe
vio_new_win32shared_memory
vio_delete
vio_reset
vio_timeout
vio_end
